gplink-2.2.37 (Jan 22 2024)
Listing File Generated: 2026-4-22  10:37:19
 
 
Address  Value    Disassembly              Source
-------  -----    -----------              ------
                                           ;--------------------------------------------------------
                                           ; external declarations
                                           ;--------------------------------------------------------
                                           	extern	_LVD_Init
                                           	extern	_timer0_init
                                           	extern	_timer1_init
                                           	extern	_INDFbits
                                           	extern	_T0CNTbits
                                           	extern	_PCLbits
                                           	extern	_STATUSbits
                                           	extern	_FSRbits
                                           	extern	_P1bits
                                           	extern	_MCRbits
                                           	extern	_P1KBCRbits
                                           	extern	_PCLATHbits
                                           	extern	_PDCONbits
                                           	extern	_ODCONbits
                                           	extern	_PUCONbits
                                           	extern	_INTEbits
                                           	extern	_INTFbits
                                           	extern	_T0CRbits
                                           	extern	_DDR1bits
                                           	extern	_TMRCRbits
                                           	extern	_T1CRbits
                                           	extern	_T1CNTbits
                                           	extern	_T1LOADbits
                                           	extern	_T1DATAbits
                                           	extern	_INDF
                                           	extern	_T0CNT
                                           	extern	_PCL
                                           	extern	_STATUS
                                           	extern	_FSR
                                           	extern	_P1
                                           	extern	_MCR
                                           	extern	_P1KBCR
                                           	extern	_PCLATH
                                           	extern	_PDCON
                                           	extern	_ODCON
                                           	extern	_PUCON
                                           	extern	_INTE
                                           	extern	_INTF
                                           	extern	_T0CR
                                           	extern	_DDR1
                                           	extern	_TMRCR
                                           	extern	_T1CR
                                           	extern	_T1CNT
                                           	extern	_T1LOAD
                                           	extern	_T1DATA
                                           ;--------------------------------------------------------
                                           ; global declarations
                                           ;--------------------------------------------------------
                                           	global	_led_refresh
                                           	global	_led_status_handle
                                           	global	_key_scan
                                           	global	_led4_on
                                           	global	_led3_on
                                           	global	_led2_on
                                           	global	_led1_on
                                           	global	_led_all_off
                                           	global	_user_init
                                           	global	_Sys_Init
                                           	global	_lvd_scan
                                           	global	_IO_Init
                                           	global	_C_RAM
                                           	global	_delay_ms
                                           	global	_pen_pwr_on
                                           	global	_pen_pwr_off
                                           	global	_main
                                           	global	_int_isr
                                           	global	_abuf
                                           	global	_statusbuf
                                           	global	_flag1
                                           	global	_flag2
                                           	global	_cur_cmp_bat_lev
                                           	global	_tmp_bat_lev
                                           	global	_bat_lev
                                           	global	_pwr_off_cnt
                                           	global	_into_low_power_cnt
                                           	global	_charge_anim_phase
                                           	global	_charge_fully_cnt
                                           	global	_led_sta_reflash_cnt
                                           	global	_cur_key_id
                                           
                                           	global STK06
                                           	global STK05
                                           	global STK04
                                           	global STK03
                                           	global STK02
                                           	global STK01
                                           	global STK00
                                           
                                           sharebank udata_ovr 0x0010
                                           STK06	res 1
                                           STK05	res 1
                                           STK04	res 1
                                           STK03	res 1
                                           STK02	res 1
                                           STK01	res 1
                                           STK00	res 1
                                           
                                           ;--------------------------------------------------------
                                           ; global definitions
                                           ;--------------------------------------------------------
                                           UD_MC30P6280_0	udata
                                           _abuf	res	1
                                           
                                           UD_MC30P6280_1	udata
                                           _statusbuf	res	1
                                           
                                           UD_MC30P6280_2	udata
                                           _flag1	res	1
                                           
                                           UD_MC30P6280_3	udata
                                           _flag2	res	1
                                           
                                           ;--------------------------------------------------------
                                           ; absolute symbol definitions
                                           ;--------------------------------------------------------
                                           ;--------------------------------------------------------
                                           ; compiler-defined variables
                                           ;--------------------------------------------------------
                                           UDL_MC30P6280_0	udata
                                           r0x1022	res	1
                                           r0x101A	res	1
                                           r0x1019	res	1
                                           r0x1018	res	1
                                           r0x1017	res	1
                                           r0x101B	res	1
                                           r0x101C	res	1
                                           r0x101D	res	1
                                           r0x101E	res	1
                                           r0x1021	res	1
                                           r0x1020	res	1
                                           r0x101F	res	1
                                           r0x1023	res	1
                                           r0x1024	res	1
                                           _led_refresh_sta_65536_102	res	1
                                           _int_isr_cnt_196608_119	res	1
                                           _int_isr_cnt_327680_125	res	1
                                           ;--------------------------------------------------------
                                           ; initialized data
                                           ;--------------------------------------------------------
                                           
                                           ID_MC30P6280_0	idata
                                           _cur_cmp_bat_lev
                                           	db	0x00
                                           
                                           
                                           ID_MC30P6280_1	idata
                                           _tmp_bat_lev
                                           	db	0x00
                                           
                                           
                                           ID_MC30P6280_2	idata
                                           _bat_lev
                                           	db	0x00
                                           
                                           
                                           ID_MC30P6280_3	idata
                                           _pwr_off_cnt
                                           	db	0x00, 0x00
                                           
                                           
                                           ID_MC30P6280_4	idata
                                           _into_low_power_cnt
                                           	db	0x00
                                           
                                           
                                           ID_MC30P6280_5	idata
                                           _charge_anim_phase
                                           	db	0x00
                                           
                                           
                                           ID_MC30P6280_6	idata
                                           _charge_fully_cnt
                                           	db	0x00, 0x00
                                           
                                           
                                           ID_MC30P6280_7	idata
                                           _led_sta_reflash_cnt
                                           	db	0x00
                                           
                                           
                                           ID_MC30P6280_8	idata
                                           _cur_lvd_state
                                           	db	0x00
                                           
                                           
                                           ID_MC30P6280_9	idata
                                           _last_key_id
                                           	db	0x00
                                           
                                           
                                           ID_MC30P6280_10	idata
                                           _press_cnt
                                           	db	0x00
                                           
                                           
                                           ID_MC30P6280_11	idata
                                           _filter_cnt
                                           	db	0x00
                                           
                                           
                                           ID_MC30P6280_12	idata
                                           _filter_key_id
                                           	db	0x00
                                           
                                           
                                           ID_MC30P6280_13	idata
                                           _click_delay_cnt
                                           	db	0x00
                                           
                                           
                                           ID_MC30P6280_14	idata
                                           _click_cnt
                                           	db	0x00
                                           
                                           
                                           ID_MC30P6280_15	idata
                                           _cur_key_id
                                           	db	0x00
                                           
                                           
                                           ;@Allocation info for local variables in function 'C_RAM'
                                           ;@C_RAM IO_Init                   Allocated to registers ;size:2
                                           ;@C_RAM LVD_Init                  Allocated to registers ;size:2
                                           ;@C_RAM Sys_Init                  Allocated to registers ;size:2
                                           ;@C_RAM user_init                 Allocated to registers ;size:2
                                           ;@C_RAM led_all_off               Allocated to registers ;size:2
                                           ;@C_RAM led1_on                   Allocated to registers ;size:2
                                           ;@C_RAM led2_on                   Allocated to registers ;size:2
                                           ;@C_RAM led3_on                   Allocated to registers ;size:2
                                           ;@C_RAM led4_on                   Allocated to registers ;size:2
                                           ;@C_RAM led_status_handle         Allocated to registers ;size:2
                                           ;@C_RAM led_refresh               Allocated to registers ;size:2
                                           ;@C_RAM key_scan                  Allocated to registers ;size:2
                                           ;@C_RAM lvd_scan                  Allocated to registers ;size:2
                                           ;@C_RAM timer0_init               Allocated to registers ;size:2
                                           ;@C_RAM timer1_init               Allocated to registers ;size:2
                                           ;@C_RAM INDFbits                  Allocated to registers ;size:1
                                           ;@C_RAM T0CNTbits                 Allocated to registers ;size:1
                                           ;@C_RAM PCLbits                   Allocated to registers ;size:1
                                           ;@C_RAM STATUSbits                Allocated to registers ;size:1
                                           ;@C_RAM FSRbits                   Allocated to registers ;size:1
                                           ;@C_RAM P1bits                    Allocated to registers ;size:1
                                           ;@C_RAM MCRbits                   Allocated to registers ;size:1
                                           ;@C_RAM P1KBCRbits                Allocated to registers ;size:1
                                           ;@C_RAM PCLATHbits                Allocated to registers ;size:1
                                           ;@C_RAM PDCONbits                 Allocated to registers ;size:1
                                           ;@C_RAM ODCONbits                 Allocated to registers ;size:1
                                           ;@C_RAM PUCONbits                 Allocated to registers ;size:1
                                           ;@C_RAM INTEbits                  Allocated to registers ;size:1
                                           ;@C_RAM INTFbits                  Allocated to registers ;size:1
                                           ;@C_RAM T0CRbits                  Allocated to registers ;size:1
                                           ;@C_RAM DDR1bits                  Allocated to registers ;size:1
                                           ;@C_RAM TMRCRbits                 Allocated to registers ;size:1
                                           ;@C_RAM T1CRbits                  Allocated to registers ;size:1
                                           ;@C_RAM T1CNTbits                 Allocated to registers ;size:1
                                           ;@C_RAM T1LOADbits                Allocated to registers ;size:1
                                           ;@C_RAM T1DATAbits                Allocated to registers ;size:1
                                           ;@C_RAM abuf                      Allocated to registers ;size:1
                                           ;@C_RAM statusbuf                 Allocated to registers ;size:1
                                           ;@C_RAM flag1                     Allocated to registers ;size:1
                                           ;@C_RAM flag2                     Allocated to registers ;size:1
                                           ;@C_RAM cur_cmp_bat_lev           Allocated to registers ;size:1
                                           ;@C_RAM tmp_bat_lev               Allocated to registers ;size:1
                                           ;@C_RAM bat_lev                   Allocated to registers ;size:1
                                           ;@C_RAM pwr_off_cnt               Allocated to registers ;size:2
                                           ;@C_RAM into_low_power_cnt        Allocated to registers ;size:1
                                           ;@C_RAM charge_anim_phase         Allocated to registers ;size:1
                                           ;@C_RAM charge_fully_cnt          Allocated to registers ;size:2
                                           ;@C_RAM led_sta_reflash_cnt       Allocated to registers ;size:1
                                           ;@C_RAM cur_lvd_state             Allocated to registers ;size:1
                                           ;@C_RAM last_key_id               Allocated to registers ;size:1
                                           ;@C_RAM press_cnt                 Allocated to registers ;size:1
                                           ;@C_RAM filter_cnt                Allocated to registers ;size:1
                                           ;@C_RAM filter_key_id             Allocated to registers ;size:1
                                           ;@C_RAM click_delay_cnt           Allocated to registers ;size:1
                                           ;@C_RAM click_cnt                 Allocated to registers ;size:1
                                           ;@C_RAM cur_key_id                Allocated to registers ;size:1
                                           ;@C_RAM INDF                      Allocated to registers ;size:1
                                           ;@C_RAM T0CNT                     Allocated to registers ;size:1
                                           ;@C_RAM PCL                       Allocated to registers ;size:1
                                           ;@C_RAM STATUS                    Allocated to registers ;size:1
                                           ;@C_RAM FSR                       Allocated to registers ;size:1
                                           ;@C_RAM P1                        Allocated to registers ;size:1
                                           ;@C_RAM MCR                       Allocated to registers ;size:1
                                           ;@C_RAM P1KBCR                    Allocated to registers ;size:1
                                           ;@C_RAM PCLATH                    Allocated to registers ;size:1
                                           ;@C_RAM PDCON                     Allocated to registers ;size:1
                                           ;@C_RAM ODCON                     Allocated to registers ;size:1
                                           ;@C_RAM PUCON                     Allocated to registers ;size:1
                                           ;@C_RAM INTE                      Allocated to registers ;size:1
                                           ;@C_RAM INTF                      Allocated to registers ;size:1
                                           ;@C_RAM T0CR                      Allocated to registers ;size:1
                                           ;@C_RAM DDR1                      Allocated to registers ;size:1
                                           ;@C_RAM TMRCR                     Allocated to registers ;size:1
                                           ;@C_RAM T1CR                      Allocated to registers ;size:1
                                           ;@C_RAM T1CNT                     Allocated to registers ;size:1
                                           ;@C_RAM T1LOAD                    Allocated to registers ;size:1
                                           ;@C_RAM T1DATA                    Allocated to registers ;size:1
                                           ;@end Allocation info for local variables in function 'C_RAM';
                                           ;@Allocation info for local variables in function 'IO_Init'
                                           ;@end Allocation info for local variables in function 'IO_Init';
                                           ;@Allocation info for local variables in function 'lvd_scan'
                                           ;@end Allocation info for local variables in function 'lvd_scan';
                                           ;@Allocation info for local variables in function 'Sys_Init'
                                           ;@end Allocation info for local variables in function 'Sys_Init';
                                           ;@Allocation info for local variables in function 'delay_ms'
                                           ;@delay_ms xms                       Allocated to registers ;size:4
                                           ;@delay_ms i                         Allocated to registers r0x101B r0x101C ;size:2
                                           ;@end Allocation info for local variables in function 'delay_ms';
                                           ;@Allocation info for local variables in function 'user_init'
                                           ;@end Allocation info for local variables in function 'user_init';
                                           ;@Allocation info for local variables in function 'pen_pwr_on'
                                           ;@end Allocation info for local variables in function 'pen_pwr_on';
                                           ;@Allocation info for local variables in function 'pen_pwr_off'
                                           ;@end Allocation info for local variables in function 'pen_pwr_off';
                                           ;@Allocation info for local variables in function 'led_all_off'
                                           ;@end Allocation info for local variables in function 'led_all_off';
                                           ;@Allocation info for local variables in function 'led1_on'
                                           ;@end Allocation info for local variables in function 'led1_on';
                                           ;@Allocation info for local variables in function 'led2_on'
                                           ;@end Allocation info for local variables in function 'led2_on';
                                           ;@Allocation info for local variables in function 'led3_on'
                                           ;@end Allocation info for local variables in function 'led3_on';
                                           ;@Allocation info for local variables in function 'led4_on'
                                           ;@end Allocation info for local variables in function 'led4_on';
                                           ;@Allocation info for local variables in function 'key_scan'
                                           ;@end Allocation info for local variables in function 'key_scan';
                                           ;@Allocation info for local variables in function 'led_status_handle'
                                           ;@end Allocation info for local variables in function 'led_status_handle';
                                           ;@Allocation info for local variables in function 'led_refresh'
                                           ;@led_refresh sta                       Allocated to registers ;size:1
                                           ;@end Allocation info for local variables in function 'led_refresh';
                                           ;@Allocation info for local variables in function 'led_refresh'
                                           ;@led_refresh sta                       Allocated to registers ;size:1
                                           ;@end Allocation info for local variables in function 'led_refresh';
                                           ;@Allocation info for local variables in function 'main'
                                           ;@end Allocation info for local variables in function 'main';
                                           ;@Allocation info for local variables in function 'int_isr'
                                           ;@int_isr cnt                       Allocated to registers ;size:1
                                           ;@int_isr cnt                       Allocated to registers ;size:1
                                           ;@end Allocation info for local variables in function 'int_isr';
                                           ;@Allocation info for local variables in function 'int_isr'
                                           ;@int_isr cnt                       Allocated to registers ;size:1
                                           ;@int_isr cnt                       Allocated to registers ;size:1
                                           ;@end Allocation info for local variables in function 'int_isr';
                                           
                                           ;--------------------------------------------------------
                                           ; overlayable items in internal ram 
                                           ;--------------------------------------------------------
                                           ;	udata_ovr
                                           ;--------------------------------------------------------
                                           ; reset vector 
                                           ;--------------------------------------------------------
                                           STARTUP	code 0x0000
000000   2887     goto    0x87             	goto	_main
                                           ;--------------------------------------------------------
                                           ; interrupt and initialization code
                                           ;--------------------------------------------------------
                                           c_interrupt	code	0x8
                                           __sdcc_interrupt
                                           ;***
                                           ;  pBlock Stats: dbName = I
                                           ;***
                                           ;entry:  _int_isr	;Function start
                                           ; 0 exit points
                                           ;functions called:
                                           ;   _key_scan
                                           ;   _led_status_handle
                                           ;   _pen_pwr_off
                                           ;   _led_all_off
                                           ;   _pen_pwr_off
                                           ;   _lvd_scan
                                           ;   _led_refresh
                                           ;   _key_scan
                                           ;   _led_status_handle
                                           ;   _pen_pwr_off
                                           ;   _led_all_off
                                           ;   _pen_pwr_off
                                           ;   _lvd_scan
                                           ;   _led_refresh
                                           ;2 compiler assigned registers:
                                           ;   r0x1023
                                           ;   r0x1024
                                           ;; Starting pCode block
                                           _int_isr	;Function start
                                           ; 0 exit points
                                           ;	.line	792; "MC30P6280.c"	__endasm;
                                           	;
000008   15ac     movra   0x2c             	movra	_abuf;
000009   1103     swapar  0x3              	swapar	_STATUS;
00000a   15ad     movra   0x2d             	movra	_statusbuf;
                                           	
                                           ;	.line	794; "MC30P6280.c"	if ((T0IF) && (T0IE)) {
00000b   300f     jbset   0xf, 0           	JBSET	_INTFbits,0
00000c   2868     goto    0x68             	GOTO	_00642_DS_
00000d   300e     jbset   0xe, 0           	JBSET	_INTEbits,0
00000e   2868     goto    0x68             	GOTO	_00642_DS_
                                           ;	.line	795; "MC30P6280.c"	T0IF = 0;
00000f   3c0f     bclr    0xf, 0           	BCLR	_INTFbits,0
                                           ;	.line	796; "MC30P6280.c"	T0CNT = (u8)(255 - 125); // T0 ÄżÇ°1ms˛úÉúŇ»´ÎÖĐ¶Ď
000010   0b82     movai   0x82             	MOVAI	0x82
000011   1581     movra   0x1              	MOVRA	_T0CNT
                                           ;	.line	800; "MC30P6280.c"	cnt++;
000012   19a6     incr    0x26             	INCR	_int_isr_cnt_196608_119
                                           ;;unsigned compare: left < lit(0xA=10), size=1
                                           ;	.line	801; "MC30P6280.c"	if (cnt >= 10) {
000013   0b0a     movai   0xa              	MOVAI	0x0a
000014   1226     rsubar  0x26             	RSUBAR	_int_isr_cnt_196608_119
000015   3003     jbset   0x3, 0           	JBSET	STATUS,0
000016   2858     goto    0x58             	GOTO	_00633_DS_
                                           ;;genSkipc:3291: created from rifx:013B5EFC
                                           ;	.line	803; "MC30P6280.c"	cnt = 0;
000017   1da6     clrr    0x26             	CLRR	_int_isr_cnt_196608_119
                                           ;	.line	806; "MC30P6280.c"	key_scan();
000018   21ca     call    0x1ca            	CALL	_key_scan
                                           ;	.line	808; "MC30P6280.c"	led_status_handle();
000019   20f9     call    0xf9             	CALL	_led_status_handle
                                           ;	.line	810; "MC30P6280.c"	if (flag_is_dev_working) {
00001a   332e     jbset   0x2e, 0x6        	JBSET	_flag1,6
00001b   2828     goto    0x28             	GOTO	_00614_DS_
                                           ;;unsigned compare: left < lit(0x7530=30000), size=2
                                           ;	.line	812; "MC30P6280.c"	if (pwr_off_cnt < (u16)((u32)5 * 60 * 1000 / 10)) {
00001c   0b75     movai   0x75             	MOVAI	0x75
00001d   1229     rsubar  0x29             	RSUBAR	(_pwr_off_cnt + 1)
00001e   3103     jbset   0x3, 0x2         	JBSET	STATUS,2
00001f   2822     goto    0x22             	GOTO	_00735_DS_
000020   0b30     movai   0x30             	MOVAI	0x30
000021   1228     rsubar  0x28             	RSUBAR	_pwr_off_cnt
                                           _00735_DS_
000022   3403     jbclr   0x3, 0           	JBCLR	STATUS,0
000023   282a     goto    0x2a             	GOTO	_00615_DS_
                                           ;;genSkipc:3291: created from rifx:013B5EFC
                                           ;	.line	813; "MC30P6280.c"	pwr_off_cnt++;
000024   19a8     incr    0x28             	INCR	_pwr_off_cnt
000025   3503     jbclr   0x3, 0x2         	JBCLR	STATUS,2
000026   19a9     incr    0x29             	INCR	(_pwr_off_cnt + 1)
000027   282a     goto    0x2a             	GOTO	_00615_DS_
                                           _00614_DS_
                                           ;	.line	817; "MC30P6280.c"	pwr_off_cnt = 0;
000028   1da8     clrr    0x28             	CLRR	_pwr_off_cnt
000029   1da9     clrr    0x29             	CLRR	(_pwr_off_cnt + 1)
                                           _00615_DS_
                                           ;	.line	821; "MC30P6280.c"	if (flag_is_dev_working && bat_lev == BAT_LEV_2V9) {
00002a   332e     jbset   0x2e, 0x6        	JBSET	_flag1,6
00002b   2833     goto    0x33             	GOTO	_00617_DS_
00002c   0b00     movai   0                	MOVAI	0x00
00002d   1732     orar    0x32             	ORAR	_bat_lev
00002e   3103     jbset   0x3, 0x2         	JBSET	STATUS,2
00002f   2833     goto    0x33             	GOTO	_00617_DS_
                                           ;	.line	822; "MC30P6280.c"	pen_pwr_off();           // ¶ĎżŞ±ĘÍ·µÄą©µç
000030   2251     call    0x251            	CALL	_pen_pwr_off
                                           ;	.line	823; "MC30P6280.c"	led_all_off();           // ąŘ±ŐËůÓĐÖ¸ĘľµĆ
000031   224c     call    0x24c            	CALL	_led_all_off
                                           ;	.line	824; "MC30P6280.c"	flag_is_dev_working = 0; // ±íĘľÉč±¸ąŘ±Ő
000032   3f2e     bclr    0x2e, 0x6        	BCLR	_flag1,6
                                           _00617_DS_
                                           ;	.line	830; "MC30P6280.c"	if (CHARGE_PIN) {
000033   3186     jbset   0x6, 0x3         	JBSET	_P1bits,3
000034   284b     goto    0x4b             	GOTO	_00624_DS_
                                           ;	.line	831; "MC30P6280.c"	cnt++;
000035   19a7     incr    0x27             	INCR	_int_isr_cnt_327680_125
                                           ;;unsigned compare: left < lit(0xA=10), size=1
                                           ;	.line	832; "MC30P6280.c"	if (cnt >= 10) {
000036   0b0a     movai   0xa              	MOVAI	0x0a
000037   1227     rsubar  0x27             	RSUBAR	_int_isr_cnt_327680_125
000038   3003     jbset   0x3, 0           	JBSET	STATUS,0
000039   284d     goto    0x4d             	GOTO	_00625_DS_
                                           ;;genSkipc:3291: created from rifx:013B5EFC
                                           ;	.line	833; "MC30P6280.c"	cnt = 0;
00003a   1da7     clrr    0x27             	CLRR	_int_isr_cnt_327680_125
                                           ;	.line	834; "MC30P6280.c"	if (0 == flag_is_in_charging) {
00003b   342e     jbclr   0x2e, 0          	JBCLR	_flag1,0
00003c   284d     goto    0x4d             	GOTO	_00625_DS_
                                           ;	.line	839; "MC30P6280.c"	tmp_bat_lev = BAT_LEV_2V9;
00003d   1db1     clrr    0x31             	CLRR	_tmp_bat_lev
                                           ;	.line	840; "MC30P6280.c"	bat_lev = BAT_LEV_2V9;
00003e   1db2     clrr    0x32             	CLRR	_bat_lev
                                           ;	.line	841; "MC30P6280.c"	pen_pwr_off(); // ¶ĎżŞ±ĘÍ·µÄą©µç
00003f   2251     call    0x251            	CALL	_pen_pwr_off
                                           ;	.line	843; "MC30P6280.c"	flag_led_1_on = 0;
000040   3d2e     bclr    0x2e, 0x2        	BCLR	_flag1,2
                                           ;	.line	844; "MC30P6280.c"	flag_led_2_on = 0;
000041   3dae     bclr    0x2e, 0x3        	BCLR	_flag1,3
                                           ;	.line	845; "MC30P6280.c"	flag_led_3_on = 0;
000042   3e2e     bclr    0x2e, 0x4        	BCLR	_flag1,4
                                           ;	.line	846; "MC30P6280.c"	flag_led_4_on = 0;
000043   3eae     bclr    0x2e, 0x5        	BCLR	_flag1,5
                                           ;	.line	847; "MC30P6280.c"	flag_is_dev_working = 0; // ±íĘľÉč±¸ąŘ±Ő
000044   3f2e     bclr    0x2e, 0x6        	BCLR	_flag1,6
                                           ;	.line	849; "MC30P6280.c"	flag_is_charge_begin = 1;
000045   38ae     bset    0x2e, 0x1        	BSET	_flag1,1
                                           ;	.line	850; "MC30P6280.c"	charge_anim_phase = 0;
000046   1db4     clrr    0x34             	CLRR	_charge_anim_phase
                                           ;	.line	851; "MC30P6280.c"	charge_fully_cnt = 0; // ¸Ő˝řČëłäµçŁ¬ÇĺżŐłäÂúµçµÄĽĆĘýÖµ
000047   1daa     clrr    0x2a             	CLRR	_charge_fully_cnt
000048   1dab     clrr    0x2b             	CLRR	(_charge_fully_cnt + 1)
                                           ;	.line	852; "MC30P6280.c"	flag_is_in_charging = 1;
000049   382e     bset    0x2e, 0          	BSET	_flag1,0
00004a   284d     goto    0x4d             	GOTO	_00625_DS_
                                           _00624_DS_
                                           ;	.line	859; "MC30P6280.c"	cnt = 0;
00004b   1da7     clrr    0x27             	CLRR	_int_isr_cnt_327680_125
                                           ;	.line	866; "MC30P6280.c"	flag_is_in_charging = 0;
00004c   3c2e     bclr    0x2e, 0          	BCLR	_flag1,0
                                           _00625_DS_
                                           ;	.line	872; "MC30P6280.c"	if ((CHARGE_PIN == 0) && (flag_is_dev_working == 0)) {
00004d   3586     jbclr   0x6, 0x3         	JBCLR	_P1bits,3
00004e   2857     goto    0x57             	GOTO	_00629_DS_
00004f   372e     jbclr   0x2e, 0x6        	JBCLR	_flag1,6
000050   2857     goto    0x57             	GOTO	_00629_DS_
                                           ;;unsigned compare: left < lit(0xFF=255), size=1
                                           ;	.line	873; "MC30P6280.c"	if (into_low_power_cnt < 255) {
000051   0bff     movai   0xff             	MOVAI	0xff
000052   1233     rsubar  0x33             	RSUBAR	_into_low_power_cnt
000053   3403     jbclr   0x3, 0           	JBCLR	STATUS,0
000054   2858     goto    0x58             	GOTO	_00633_DS_
                                           ;;genSkipc:3291: created from rifx:013B5EFC
                                           ;	.line	874; "MC30P6280.c"	into_low_power_cnt++;
000055   19b3     incr    0x33             	INCR	_into_low_power_cnt
000056   2858     goto    0x58             	GOTO	_00633_DS_
                                           _00629_DS_
                                           ;	.line	877; "MC30P6280.c"	into_low_power_cnt = 0;
000057   1db3     clrr    0x33             	CLRR	_into_low_power_cnt
                                           _00633_DS_
                                           ;	.line	882; "MC30P6280.c"	lvd_scan();
000058   2299     call    0x299            	CALL	_lvd_scan
                                           ;	.line	890; "MC30P6280.c"	if (flag_is_dev_working) {
000059   332e     jbset   0x2e, 0x6        	JBSET	_flag1,6
00005a   2862     goto    0x62             	GOTO	_00639_DS_
                                           ;	.line	892; "MC30P6280.c"	if (bat_lev >= tmp_bat_lev) {
00005b   1631     movar   0x31             	MOVAR	_tmp_bat_lev
00005c   1232     rsubar  0x32             	RSUBAR	_bat_lev
00005d   3003     jbset   0x3, 0           	JBSET	STATUS,0
00005e   2868     goto    0x68             	GOTO	_00642_DS_
                                           ;;genSkipc:3291: created from rifx:013B5EFC
                                           ;	.line	893; "MC30P6280.c"	bat_lev = tmp_bat_lev;
00005f   1631     movar   0x31             	MOVAR	_tmp_bat_lev
000060   15b2     movra   0x32             	MOVRA	_bat_lev
000061   2868     goto    0x68             	GOTO	_00642_DS_
                                           _00639_DS_
                                           ;	.line	898; "MC30P6280.c"	if (bat_lev <= tmp_bat_lev) {
000062   1632     movar   0x32             	MOVAR	_bat_lev
000063   1231     rsubar  0x31             	RSUBAR	_tmp_bat_lev
000064   3003     jbset   0x3, 0           	JBSET	STATUS,0
000065   2868     goto    0x68             	GOTO	_00642_DS_
                                           ;;genSkipc:3291: created from rifx:013B5EFC
                                           ;	.line	899; "MC30P6280.c"	bat_lev = tmp_bat_lev;
000066   1631     movar   0x31             	MOVAR	_tmp_bat_lev
000067   15b2     movra   0x32             	MOVRA	_bat_lev
                                           _00642_DS_
                                           ;	.line	907; "MC30P6280.c"	if ((T1IF) && (T1IE)) {
000068   304b     jbset   0x4b, 0          	JBSET	_TMRCRbits,0
000069   2882     goto    0x82             	GOTO	_00650_DS_
00006a   30cb     jbset   0x4b, 0x1        	JBSET	_TMRCRbits,1
00006b   2882     goto    0x82             	GOTO	_00650_DS_
                                           ;	.line	908; "MC30P6280.c"	T1IF = 0;
00006c   3c4b     bclr    0x4b, 0          	BCLR	_TMRCRbits,0
                                           ;	.line	912; "MC30P6280.c"	led_refresh();
00006d   20cd     call    0xcd             	CALL	_led_refresh
                                           ;	.line	915; "MC30P6280.c"	if ((VIBRATION_SENSOR_PIN && last_vibration_sensor_lev == 0) ||
00006e   3286     jbset   0x6, 0x5         	JBSET	_P1bits,5
00006f   2872     goto    0x72             	GOTO	_00648_DS_
000070   33ae     jbset   0x2e, 0x7        	JBSET	_flag1,7
000071   2876     goto    0x76             	GOTO	_00644_DS_
                                           _00648_DS_
                                           ;	.line	916; "MC30P6280.c"	(VIBRATION_SENSOR_PIN == 0 && last_vibration_sensor_lev)) {
000072   3686     jbclr   0x6, 0x5         	JBCLR	_P1bits,5
000073   2882     goto    0x82             	GOTO	_00650_DS_
000074   33ae     jbset   0x2e, 0x7        	JBSET	_flag1,7
000075   2882     goto    0x82             	GOTO	_00650_DS_
                                           _00644_DS_
                                           ;	.line	919; "MC30P6280.c"	pwr_off_cnt = 0;
000076   1da8     clrr    0x28             	CLRR	_pwr_off_cnt
000077   1da9     clrr    0x29             	CLRR	(_pwr_off_cnt + 1)
                                           ;	.line	921; "MC30P6280.c"	last_vibration_sensor_lev = VIBRATION_SENSOR_PIN;
000078   1da3     clrr    0x23             	CLRR	r0x1023
000079   3686     jbclr   0x6, 0x5         	JBCLR	_P1bits,5
00007a   19a3     incr    0x23             	INCR	r0x1023
00007b   1623     movar   0x23             	MOVAR	r0x1023
00007c   15a4     movra   0x24             	MOVRA	r0x1024
00007d   1324     rrar    0x24             	RRAR	r0x1024
00007e   3003     jbset   0x3, 0           	JBSET	STATUS,0
00007f   3fae     bclr    0x2e, 0x7        	BCLR	_flag1,7
000080   3403     jbclr   0x3, 0           	JBCLR	STATUS,0
000081   3bae     bset    0x2e, 0x7        	BSET	_flag1,7
                                           _00650_DS_
                                           ;	.line	932; "MC30P6280.c"	__endasm;
                                           	;
000082   112d     swapar  0x2d             	swapar	_statusbuf;
000083   1583     movra   0x3              	movra	_STATUS;
000084   11ac     swapr   0x2c             	swapr	_abuf;
000085   112c     swapar  0x2c             	swapar	_abuf;
                                           	
                                           END_OF_INTERRUPT
                                           ;	.line	933; "MC30P6280.c"	}
000086   000d     retie                    	RETIE	
                                           
                                           ;--------------------------------------------------------
                                           ; code
                                           ;--------------------------------------------------------
                                           code_MC30P6280	code
                                           ;***
                                           ;  pBlock Stats: dbName = M
                                           ;***
                                           ;entry:  _main	;Function start
                                           ; 2 exit points
                                           ;has an exit
                                           ;functions called:
                                           ;   _Sys_Init
                                           ;   _user_init
                                           ;   _Sys_Init
                                           ;   _user_init
                                           ;   _delay_ms
                                           ;   _Sys_Init
                                           ;   _user_init
                                           ;   _Sys_Init
                                           ;   _user_init
                                           ;   _delay_ms
                                           ;3 compiler assigned registers:
                                           ;   STK02
                                           ;   STK01
                                           ;   STK00
                                           ;; Starting pCode block
                                           _main	;Function start
                                           ; 2 exit points
                                           ;	.line	672; "MC30P6280.c"	Sys_Init();
000087   2294     call    0x294            	CALL	_Sys_Init
                                           ;	.line	673; "MC30P6280.c"	user_init();
000088   2258     call    0x258            	CALL	_user_init
                                           ;	.line	675; "MC30P6280.c"	into_low_power_cnt = (u8)((u16)2000 / 10); // Č·±ŁŇ»ÉĎµçľÍ˝řČëµÍą¦şÄ
000089   0bc8     movai   0xc8             	MOVAI	0xc8
00008a   15b3     movra   0x33             	MOVRA	_into_low_power_cnt
                                           _00578_DS_
                                           ;	.line	685; "MC30P6280.c"	if ((flag_is_dev_working && pwr_off_cnt >= (u16)((u32)5 * 60 * 1000 / 10)) ||
00008b   332e     jbset   0x2e, 0x6        	JBSET	_flag1,6
00008c   2895     goto    0x95             	GOTO	_00576_DS_
                                           ;;unsigned compare: left < lit(0x7530=30000), size=2
00008d   0b75     movai   0x75             	MOVAI	0x75
00008e   1229     rsubar  0x29             	RSUBAR	(_pwr_off_cnt + 1)
00008f   3103     jbset   0x3, 0x2         	JBSET	STATUS,2
000090   2893     goto    0x93             	GOTO	_00606_DS_
000091   0b30     movai   0x30             	MOVAI	0x30
000092   1228     rsubar  0x28             	RSUBAR	_pwr_off_cnt
                                           _00606_DS_
000093   3403     jbclr   0x3, 0           	JBCLR	STATUS,0
000094   2899     goto    0x99             	GOTO	_00566_DS_
                                           ;;genSkipc:3291: created from rifx:013B5EFC
                                           ;;unsigned compare: left < lit(0xC8=200), size=1
                                           _00576_DS_
                                           ;	.line	686; "MC30P6280.c"	into_low_power_cnt >= (u8)((u16)2000 / 10)) {
000095   0bc8     movai   0xc8             	MOVAI	0xc8
000096   1233     rsubar  0x33             	RSUBAR	_into_low_power_cnt
000097   3003     jbset   0x3, 0           	JBSET	STATUS,0
000098   288b     goto    0x8b             	GOTO	_00578_DS_
                                           ;;genSkipc:3291: created from rifx:013B5EFC
                                           _00566_DS_
                                           ;	.line	701; "MC30P6280.c"	GIE = 0; // ąŘ±Ő×ÜÖĐ¶Ď
000099   3f8e     bclr    0xe, 0x7         	BCLR	_INTEbits,7
                                           ;	.line	707; "MC30P6280.c"	T0IE = 0;  // ĆÁ±Î timer0 ÖĐ¶Ď
00009a   3c0e     bclr    0xe, 0           	BCLR	_INTEbits,0
                                           ;	.line	708; "MC30P6280.c"	T1IE = 0;  // ĆÁ±Î timer1 ÖĐ¶Ď
00009b   3ccb     bclr    0x4b, 0x1        	BCLR	_TMRCRbits,1
                                           ;	.line	709; "MC30P6280.c"	T1EN = 0;  // ˛»ĘąÄÜ¶¨Ę±Ć÷
00009c   3fcc     bclr    0x4c, 0x7        	BCLR	_T1CRbits,7
                                           ;	.line	710; "MC30P6280.c"	LVDEN = 0; // ąŘ±Ő lvd
00009d   3c08     bclr    0x8, 0           	BCLR	_MCRbits,0
                                           ;	.line	713; "MC30P6280.c"	PUCON = 0xFF; // 0:Effective 1:invalid
00009e   0bff     movai   0xff             	MOVAI	0xff
00009f   158d     movra   0xd              	MOVRA	_PUCON
                                           ;	.line	714; "MC30P6280.c"	PDCON = 0xFF; // 0:Effective 1:invalid
0000a0   0bff     movai   0xff             	MOVAI	0xff
0000a1   158b     movra   0xb              	MOVRA	_PDCON
                                           ;	.line	715; "MC30P6280.c"	DDR1 = 0xFF;  // 1:input 0:output
0000a2   0bff     movai   0xff             	MOVAI	0xff
0000a3   15c6     movra   0x46             	MOVRA	_DDR1
                                           ;	.line	717; "MC30P6280.c"	PUCON &= ~(0x01 << 0);             // ÉĎŔ­ 20K Ł¬ P10(°´ĽüĽě˛â˝Ĺ)
0000a4   3c0d     bclr    0xd, 0           	BCLR	_PUCON,0
                                           ;	.line	718; "MC30P6280.c"	PUCON &= ~(0x01 << 1 | 0x01 << 2); // LEDżŘÖĆ A¶ËşÍB¶ËŁ¬´ňżŞÉĎŔ­
0000a5   0bf9     movai   0xf9             	MOVAI	0xf9
0000a6   1e8d     andra   0xd              	ANDRA	_PUCON
                                           ;	.line	724; "MC30P6280.c"	KBIF = 0; // ÇĺłýÖĐ¶Ď±ęÖľ
0000a7   3c8f     bclr    0xf, 0x1         	BCLR	_INTFbits,1
                                           ;	.line	725; "MC30P6280.c"	KBIE = 1; // ĘąÄÜĽüĹĚÖĐ¶Ď
0000a8   388e     bset    0xe, 0x1         	BSET	_INTEbits,1
                                           ;	.line	729; "MC30P6280.c"	P1KBCR |= (0x01 << 0) | (0x01 << 3);
0000a9   0b09     movai   0x9              	MOVAI	0x09
0000aa   1789     orra    0x9              	ORRA	_P1KBCR
                                           ;	.line	737; "MC30P6280.c"	Stop();
0000ab   000b     sleep                    	stop	
                                           ;	.line	738; "MC30P6280.c"	Nop();
0000ac   0000     nop                      	nop	
                                           ;	.line	739; "MC30P6280.c"	Nop();
0000ad   0000     nop                      	nop	
                                           ;	.line	742; "MC30P6280.c"	P1KBCR = 0; // ąŘ±ŐËůÓĐĽüĹĚÖĐ¶Ď
0000ae   1d89     clrr    0x9              	CLRR	_P1KBCR
                                           ;	.line	743; "MC30P6280.c"	KBIE = 0;   // ąŘ±ŐĽüĹĚÖĐ¶Ď
0000af   3c8e     bclr    0xe, 0x1         	BCLR	_INTEbits,1
                                           ;	.line	744; "MC30P6280.c"	KBIF = 0;   // Çĺłý ĽüĹĚÖĐ¶Ď ±ęÖľ
0000b0   3c8f     bclr    0xf, 0x1         	BCLR	_INTFbits,1
                                           ;	.line	751; "MC30P6280.c"	Sys_Init();
0000b1   2294     call    0x294            	CALL	_Sys_Init
                                           ;	.line	752; "MC30P6280.c"	user_init();
0000b2   2258     call    0x258            	CALL	_user_init
                                           ;	.line	754; "MC30P6280.c"	if (CHARGE_PIN == 0) {
0000b3   3586     jbclr   0x6, 0x3         	JBCLR	_P1bits,3
0000b4   28ba     goto    0xba             	GOTO	_00568_DS_
                                           ;	.line	756; "MC30P6280.c"	tmp_bat_lev = BAT_LEV_4V2; // »˝ĐŃşóŁ¬¸řŇ»¸öÄ¬ČĎÖµ
0000b5   0b06     movai   0x6              	MOVAI	0x06
0000b6   15b1     movra   0x31             	MOVRA	_tmp_bat_lev
                                           ;	.line	757; "MC30P6280.c"	bat_lev = BAT_LEV_4V2;
0000b7   0b06     movai   0x6              	MOVAI	0x06
0000b8   15b2     movra   0x32             	MOVRA	_bat_lev
0000b9   28bc     goto    0xbc             	GOTO	_00569_DS_
                                           _00568_DS_
                                           ;	.line	760; "MC30P6280.c"	tmp_bat_lev = BAT_LEV_2V9;
0000ba   1db1     clrr    0x31             	CLRR	_tmp_bat_lev
                                           ;	.line	761; "MC30P6280.c"	bat_lev = BAT_LEV_2V9;
0000bb   1db2     clrr    0x32             	CLRR	_bat_lev
                                           _00569_DS_
                                           ;	.line	768; "MC30P6280.c"	delay_ms(100);
0000bc   0b64     movai   0x64             	MOVAI	0x64
0000bd   1594     movra   0x14             	MOVRA	STK02
0000be   0b00     movai   0                	MOVAI	0x00
0000bf   1595     movra   0x15             	MOVRA	STK01
0000c0   0b00     movai   0                	MOVAI	0x00
0000c1   1596     movra   0x16             	MOVRA	STK00
0000c2   0b00     movai   0                	MOVAI	0x00
0000c3   2268     call    0x268            	CALL	_delay_ms
                                           ;	.line	769; "MC30P6280.c"	flag_is_led_show_enable = 1; // Č·±ŁµçłŘµçÁż¸üĐÂşóŁ¬ÔŮĘąÄÜledĎÔĘľ
0000c4   382f     bset    0x2f, 0          	BSET	_flag2,0
                                           ;	.line	772; "MC30P6280.c"	if (CHARGE_PIN == 0 && bat_lev < BAT_LEV_3V0) {
0000c5   3586     jbclr   0x6, 0x3         	JBCLR	_P1bits,3
0000c6   288b     goto    0x8b             	GOTO	_00578_DS_
                                           ;;unsigned compare: left < lit(0x1=1), size=1
0000c7   0b01     movai   0x1              	MOVAI	0x01
0000c8   1232     rsubar  0x32             	RSUBAR	_bat_lev
0000c9   3003     jbset   0x3, 0           	JBSET	STATUS,0
0000ca   2899     goto    0x99             	GOTO	_00566_DS_
                                           ;;genSkipc:3291: created from rifx:013B5EFC
                                           ;	.line	773; "MC30P6280.c"	goto label_low_power_in;
0000cb   288b     goto    0x8b             	GOTO	_00578_DS_
                                           ;	.line	778; "MC30P6280.c"	}
0000cc   000c     return                   	RETURN	
                                           ; exit point of _main
                                           
                                           ;***
                                           ;  pBlock Stats: dbName = C
                                           ;***
                                           ;entry:  _led_refresh	;Function start
                                           ; 2 exit points
                                           ;has an exit
                                           ;functions called:
                                           ;   _led_all_off
                                           ;   _led1_on
                                           ;   _led2_on
                                           ;   _led3_on
                                           ;   _led4_on
                                           ;   _led_all_off
                                           ;   _led1_on
                                           ;   _led2_on
                                           ;   _led3_on
                                           ;   _led4_on
                                           ;1 compiler assigned register :
                                           ;   r0x101F
                                           ;; Starting pCode block
                                           _led_refresh	;Function start
                                           ; 2 exit points
                                           ;	.line	633; "MC30P6280.c"	if (0 == flag_is_led_show_enable) {
0000cd   342f     jbclr   0x2f, 0          	JBCLR	_flag2,0
0000ce   28d0     goto    0xd0             	GOTO	_00519_DS_
                                           ;	.line	634; "MC30P6280.c"	return;
0000cf   28f8     goto    0xf8             	GOTO	_00534_DS_
                                           _00519_DS_
                                           ;	.line	637; "MC30P6280.c"	led_all_off();
0000d0   224c     call    0x24c            	CALL	_led_all_off
                                           ;	.line	639; "MC30P6280.c"	switch (sta) {
0000d1   1625     movar   0x25             	MOVAR	_led_refresh_sta_65536_102
0000d2   15a2     movra   0x22             	MOVRA	r0x101F
                                           ;;swapping arguments (AOP_TYPEs 1/2)
                                           ;;unsigned compare: left >= lit(0x4=4), size=1
0000d3   0b04     movai   0x4              	MOVAI	0x04
0000d4   1222     rsubar  0x22             	RSUBAR	r0x101F
0000d5   3403     jbclr   0x3, 0           	JBCLR	STATUS,0
0000d6   28f8     goto    0xf8             	GOTO	_00534_DS_
                                           ;;genSkipc:3291: created from rifx:013B5EFC
0000d7   0b00     movai   0                	MOVAI	HIGH(_00561_DS_)
0000d8   158a     movra   0xa              	MOVRA	PCLATH
0000d9   0bde     movai   0xde             	MOVAI	_00561_DS_
0000da   1f22     addar   0x22             	ADDAR	r0x101F
0000db   3403     jbclr   0x3, 0           	JBCLR	STATUS,0
0000dc   198a     incr    0xa              	INCR	PCLATH
0000dd   1582     movra   0x2              	MOVRA	PCL
                                           _00561_DS_
0000de   28e2     goto    0xe2             	GOTO	_00520_DS_
0000df   28e8     goto    0xe8             	GOTO	_00523_DS_
0000e0   28ee     goto    0xee             	GOTO	_00526_DS_
0000e1   28f4     goto    0xf4             	GOTO	_00529_DS_
                                           _00520_DS_
                                           ;	.line	641; "MC30P6280.c"	if (flag_led_1_on) {
0000e2   312e     jbset   0x2e, 0x2        	JBSET	_flag1,2
0000e3   28e5     goto    0xe5             	GOTO	_00522_DS_
                                           ;	.line	642; "MC30P6280.c"	led1_on();
0000e4   2247     call    0x247            	CALL	_led1_on
                                           _00522_DS_
                                           ;	.line	644; "MC30P6280.c"	sta = 1;
0000e5   0b01     movai   0x1              	MOVAI	0x01
0000e6   15a5     movra   0x25             	MOVRA	_led_refresh_sta_65536_102
                                           ;	.line	645; "MC30P6280.c"	break;
0000e7   28f8     goto    0xf8             	GOTO	_00534_DS_
                                           _00523_DS_
                                           ;	.line	647; "MC30P6280.c"	if (flag_led_2_on) {
0000e8   31ae     jbset   0x2e, 0x3        	JBSET	_flag1,3
0000e9   28eb     goto    0xeb             	GOTO	_00525_DS_
                                           ;	.line	648; "MC30P6280.c"	led2_on();
0000ea   2242     call    0x242            	CALL	_led2_on
                                           _00525_DS_
                                           ;	.line	650; "MC30P6280.c"	sta = 2;
0000eb   0b02     movai   0x2              	MOVAI	0x02
0000ec   15a5     movra   0x25             	MOVRA	_led_refresh_sta_65536_102
                                           ;	.line	651; "MC30P6280.c"	break;
0000ed   28f8     goto    0xf8             	GOTO	_00534_DS_
                                           _00526_DS_
                                           ;	.line	653; "MC30P6280.c"	if (flag_led_3_on) {
0000ee   322e     jbset   0x2e, 0x4        	JBSET	_flag1,4
0000ef   28f1     goto    0xf1             	GOTO	_00528_DS_
                                           ;	.line	654; "MC30P6280.c"	led3_on();
0000f0   223d     call    0x23d            	CALL	_led3_on
                                           _00528_DS_
                                           ;	.line	656; "MC30P6280.c"	sta = 3;
0000f1   0b03     movai   0x3              	MOVAI	0x03
0000f2   15a5     movra   0x25             	MOVRA	_led_refresh_sta_65536_102
                                           ;	.line	657; "MC30P6280.c"	break;
0000f3   28f8     goto    0xf8             	GOTO	_00534_DS_
                                           _00529_DS_
                                           ;	.line	659; "MC30P6280.c"	if (flag_led_4_on) {
0000f4   32ae     jbset   0x2e, 0x5        	JBSET	_flag1,5
0000f5   28f7     goto    0xf7             	GOTO	_00531_DS_
                                           ;	.line	660; "MC30P6280.c"	led4_on();
0000f6   2238     call    0x238            	CALL	_led4_on
                                           _00531_DS_
                                           ;	.line	662; "MC30P6280.c"	sta = 0;
0000f7   1da5     clrr    0x25             	CLRR	_led_refresh_sta_65536_102
                                           _00534_DS_
                                           ;	.line	668; "MC30P6280.c"	}
0000f8   000c     return                   	RETURN	
                                           ; exit point of _led_refresh
                                           
                                           ;***
                                           ;  pBlock Stats: dbName = C
                                           ;***
                                           ;entry:  _led_status_handle	;Function start
                                           ; 2 exit points
                                           ;has an exit
                                           ;1 compiler assigned register :
                                           ;   r0x1020
                                           ;; Starting pCode block
                                           _led_status_handle	;Function start
                                           ; 2 exit points
                                           ;	.line	475; "MC30P6280.c"	led_sta_reflash_cnt++;
0000f9   19b5     incr    0x35             	INCR	_led_sta_reflash_cnt
                                           ;;unsigned compare: left < lit(0x32=50), size=1
                                           ;	.line	476; "MC30P6280.c"	if (led_sta_reflash_cnt >= (u8)(500 / 10)) {
0000fa   0b32     movai   0x32             	MOVAI	0x32
0000fb   1235     rsubar  0x35             	RSUBAR	_led_sta_reflash_cnt
0000fc   3003     jbset   0x3, 0           	JBSET	STATUS,0
0000fd   29c9     goto    0x1c9            	GOTO	_00416_DS_
                                           ;;genSkipc:3291: created from rifx:013B5EFC
                                           ;	.line	477; "MC30P6280.c"	led_sta_reflash_cnt = 0;
0000fe   1db5     clrr    0x35             	CLRR	_led_sta_reflash_cnt
                                           ;	.line	478; "MC30P6280.c"	if (flag_is_in_charging) {
0000ff   302e     jbset   0x2e, 0          	JBSET	_flag1,0
000100   2991     goto    0x191            	GOTO	_00412_DS_
                                           ;	.line	482; "MC30P6280.c"	if (flag_is_charge_begin) {
000101   30ae     jbset   0x2e, 0x1        	JBSET	_flag1,1
000102   293d     goto    0x13d            	GOTO	_00394_DS_
                                           ;;unsigned compare: left < lit(0x3=3), size=1
                                           ;	.line	483; "MC30P6280.c"	if (bat_lev < BAT_LEV_3V3) {
000103   0b03     movai   0x3              	MOVAI	0x03
000104   1232     rsubar  0x32             	RSUBAR	_bat_lev
000105   3403     jbclr   0x3, 0           	JBCLR	STATUS,0
000106   2909     goto    0x109            	GOTO	_00375_DS_
                                           ;;genSkipc:3291: created from rifx:013B5EFC
                                           ;	.line	488; "MC30P6280.c"	flag_is_charge_begin = 0;
000107   3cae     bclr    0x2e, 0x1        	BCLR	_flag1,1
000108   29c9     goto    0x1c9            	GOTO	_00416_DS_
                                           ;;unsigned compare: left < lit(0x3=3), size=1
                                           _00375_DS_
                                           ;	.line	489; "MC30P6280.c"	} else if (bat_lev >= BAT_LEV_3V3 && charge_anim_phase == 0) {
000109   0b03     movai   0x3              	MOVAI	0x03
00010a   1232     rsubar  0x32             	RSUBAR	_bat_lev
00010b   3003     jbset   0x3, 0           	JBSET	STATUS,0
00010c   2915     goto    0x115            	GOTO	_00371_DS_
                                           ;;genSkipc:3291: created from rifx:013B5EFC
00010d   0b00     movai   0                	MOVAI	0x00
00010e   1734     orar    0x34             	ORAR	_charge_anim_phase
00010f   3103     jbset   0x3, 0x2         	JBSET	STATUS,2
000110   2915     goto    0x115            	GOTO	_00371_DS_
                                           ;	.line	494; "MC30P6280.c"	flag_led_1_on = 1;
000111   392e     bset    0x2e, 0x2        	BSET	_flag1,2
                                           ;	.line	495; "MC30P6280.c"	charge_anim_phase = 1;
000112   0b01     movai   0x1              	MOVAI	0x01
000113   15b4     movra   0x34             	MOVRA	_charge_anim_phase
000114   29c9     goto    0x1c9            	GOTO	_00416_DS_
                                           ;;unsigned compare: left < lit(0x4=4), size=1
                                           _00371_DS_
                                           ;	.line	496; "MC30P6280.c"	} else if (bat_lev >= BAT_LEV_3V6 && charge_anim_phase == 1) {
000115   0b04     movai   0x4              	MOVAI	0x04
000116   1232     rsubar  0x32             	RSUBAR	_bat_lev
000117   3003     jbset   0x3, 0           	JBSET	STATUS,0
000118   2921     goto    0x121            	GOTO	_00367_DS_
                                           ;;genSkipc:3291: created from rifx:013B5EFC
000119   1634     movar   0x34             	MOVAR	_charge_anim_phase
00011a   0801     xorai   0x1              	XORAI	0x01
00011b   3103     jbset   0x3, 0x2         	JBSET	STATUS,2
00011c   2921     goto    0x121            	GOTO	_00367_DS_
                                           ;	.line	501; "MC30P6280.c"	flag_led_2_on = 1;
00011d   39ae     bset    0x2e, 0x3        	BSET	_flag1,3
                                           ;	.line	502; "MC30P6280.c"	charge_anim_phase = 2;
00011e   0b02     movai   0x2              	MOVAI	0x02
00011f   15b4     movra   0x34             	MOVRA	_charge_anim_phase
000120   29c9     goto    0x1c9            	GOTO	_00416_DS_
                                           ;;unsigned compare: left < lit(0x5=5), size=1
                                           _00367_DS_
                                           ;	.line	503; "MC30P6280.c"	} else if (bat_lev >= BAT_LEV_4V0 && charge_anim_phase == 2) {
000121   0b05     movai   0x5              	MOVAI	0x05
000122   1232     rsubar  0x32             	RSUBAR	_bat_lev
000123   3003     jbset   0x3, 0           	JBSET	STATUS,0
000124   292d     goto    0x12d            	GOTO	_00363_DS_
                                           ;;genSkipc:3291: created from rifx:013B5EFC
000125   1634     movar   0x34             	MOVAR	_charge_anim_phase
000126   0802     xorai   0x2              	XORAI	0x02
000127   3103     jbset   0x3, 0x2         	JBSET	STATUS,2
000128   292d     goto    0x12d            	GOTO	_00363_DS_
                                           ;	.line	508; "MC30P6280.c"	flag_led_3_on = 1;
000129   3a2e     bset    0x2e, 0x4        	BSET	_flag1,4
                                           ;	.line	509; "MC30P6280.c"	charge_anim_phase = 3;
00012a   0b03     movai   0x3              	MOVAI	0x03
00012b   15b4     movra   0x34             	MOVRA	_charge_anim_phase
00012c   29c9     goto    0x1c9            	GOTO	_00416_DS_
                                           ;;unsigned compare: left < lit(0x6=6), size=1
                                           _00363_DS_
                                           ;	.line	510; "MC30P6280.c"	} else if (bat_lev >= BAT_LEV_4V2 && charge_anim_phase == 3) {
00012d   0b06     movai   0x6              	MOVAI	0x06
00012e   1232     rsubar  0x32             	RSUBAR	_bat_lev
00012f   3003     jbset   0x3, 0           	JBSET	STATUS,0
000130   2939     goto    0x139            	GOTO	_00359_DS_
                                           ;;genSkipc:3291: created from rifx:013B5EFC
000131   1634     movar   0x34             	MOVAR	_charge_anim_phase
000132   0803     xorai   0x3              	XORAI	0x03
000133   3103     jbset   0x3, 0x2         	JBSET	STATUS,2
000134   2939     goto    0x139            	GOTO	_00359_DS_
                                           ;	.line	512; "MC30P6280.c"	flag_led_4_on = 1;
000135   3aae     bset    0x2e, 0x5        	BSET	_flag1,5
                                           ;	.line	513; "MC30P6280.c"	charge_anim_phase = 4;
000136   0b04     movai   0x4              	MOVAI	0x04
000137   15b4     movra   0x34             	MOVRA	_charge_anim_phase
000138   29c9     goto    0x1c9            	GOTO	_00416_DS_
                                           _00359_DS_
                                           ;	.line	515; "MC30P6280.c"	flag_is_charge_begin = 0; // ÍËłö¸ŐżŞĘĽłäµçµÄ¶Ż»­
000139   3cae     bclr    0x2e, 0x1        	BCLR	_flag1,1
                                           ;	.line	520; "MC30P6280.c"	led_sta_reflash_cnt = (u8)(500 / 10);
00013a   0b32     movai   0x32             	MOVAI	0x32
00013b   15b5     movra   0x35             	MOVRA	_led_sta_reflash_cnt
00013c   29c9     goto    0x1c9            	GOTO	_00416_DS_
                                           _00394_DS_
                                           ;	.line	524; "MC30P6280.c"	switch (bat_lev) {
00013d   1632     movar   0x32             	MOVAR	_bat_lev
00013e   15a1     movra   0x21             	MOVRA	r0x1020
                                           ;;swapping arguments (AOP_TYPEs 1/2)
                                           ;;unsigned compare: left >= lit(0x7=7), size=1
00013f   0b07     movai   0x7              	MOVAI	0x07
000140   1221     rsubar  0x21             	RSUBAR	r0x1020
000141   3403     jbclr   0x3, 0           	JBCLR	STATUS,0
000142   297c     goto    0x17c            	GOTO	_00384_DS_
                                           ;;genSkipc:3291: created from rifx:013B5EFC
000143   0b01     movai   0x1              	MOVAI	HIGH(_00513_DS_)
000144   158a     movra   0xa              	MOVRA	PCLATH
000145   0b4a     movai   0x4a             	MOVAI	_00513_DS_
000146   1f21     addar   0x21             	ADDAR	r0x1020
000147   3403     jbclr   0x3, 0           	JBCLR	STATUS,0
000148   198a     incr    0xa              	INCR	PCLATH
000149   1582     movra   0x2              	MOVRA	PCL
                                           _00513_DS_
00014a   2972     goto    0x172            	GOTO	_00383_DS_
00014b   2972     goto    0x172            	GOTO	_00383_DS_
00014c   2972     goto    0x172            	GOTO	_00383_DS_
00014d   2967     goto    0x167            	GOTO	_00380_DS_
00014e   295c     goto    0x15c            	GOTO	_00379_DS_
00014f   2951     goto    0x151            	GOTO	_00378_DS_
000150   2951     goto    0x151            	GOTO	_00378_DS_
                                           _00378_DS_
                                           ;	.line	527; "MC30P6280.c"	flag_led_4_on = ~flag_led_4_on;
000151   1da1     clrr    0x21             	CLRR	r0x1020
000152   36ae     jbclr   0x2e, 0x5        	JBCLR	_flag1,5
000153   19a1     incr    0x21             	INCR	r0x1020
000154   1c21     comar   0x21             	COMAR	r0x1020
000155   15a1     movra   0x21             	MOVRA	r0x1020
000156   1321     rrar    0x21             	RRAR	r0x1020
000157   3003     jbset   0x3, 0           	JBSET	STATUS,0
000158   3eae     bclr    0x2e, 0x5        	BCLR	_flag1,5
000159   3403     jbclr   0x3, 0           	JBCLR	STATUS,0
00015a   3aae     bset    0x2e, 0x5        	BSET	_flag1,5
                                           ;	.line	528; "MC30P6280.c"	break;
00015b   297c     goto    0x17c            	GOTO	_00384_DS_
                                           _00379_DS_
                                           ;	.line	530; "MC30P6280.c"	flag_led_3_on = ~flag_led_3_on;
00015c   1da1     clrr    0x21             	CLRR	r0x1020
00015d   362e     jbclr   0x2e, 0x4        	JBCLR	_flag1,4
00015e   19a1     incr    0x21             	INCR	r0x1020
00015f   1c21     comar   0x21             	COMAR	r0x1020
000160   15a1     movra   0x21             	MOVRA	r0x1020
000161   1321     rrar    0x21             	RRAR	r0x1020
000162   3003     jbset   0x3, 0           	JBSET	STATUS,0
000163   3e2e     bclr    0x2e, 0x4        	BCLR	_flag1,4
000164   3403     jbclr   0x3, 0           	JBCLR	STATUS,0
000165   3a2e     bset    0x2e, 0x4        	BSET	_flag1,4
                                           ;	.line	531; "MC30P6280.c"	break;
000166   297c     goto    0x17c            	GOTO	_00384_DS_
                                           _00380_DS_
                                           ;	.line	533; "MC30P6280.c"	flag_led_2_on = ~flag_led_2_on;
000167   1da1     clrr    0x21             	CLRR	r0x1020
000168   35ae     jbclr   0x2e, 0x3        	JBCLR	_flag1,3
000169   19a1     incr    0x21             	INCR	r0x1020
00016a   1c21     comar   0x21             	COMAR	r0x1020
00016b   15a1     movra   0x21             	MOVRA	r0x1020
00016c   1321     rrar    0x21             	RRAR	r0x1020
00016d   3003     jbset   0x3, 0           	JBSET	STATUS,0
00016e   3dae     bclr    0x2e, 0x3        	BCLR	_flag1,3
00016f   3403     jbclr   0x3, 0           	JBCLR	STATUS,0
000170   39ae     bset    0x2e, 0x3        	BSET	_flag1,3
                                           ;	.line	534; "MC30P6280.c"	break;
000171   297c     goto    0x17c            	GOTO	_00384_DS_
                                           _00383_DS_
                                           ;	.line	539; "MC30P6280.c"	flag_led_1_on = ~flag_led_1_on;
000172   1da1     clrr    0x21             	CLRR	r0x1020
000173   352e     jbclr   0x2e, 0x2        	JBCLR	_flag1,2
000174   19a1     incr    0x21             	INCR	r0x1020
000175   1c21     comar   0x21             	COMAR	r0x1020
000176   15a1     movra   0x21             	MOVRA	r0x1020
000177   1321     rrar    0x21             	RRAR	r0x1020
000178   3003     jbset   0x3, 0           	JBSET	STATUS,0
000179   3d2e     bclr    0x2e, 0x2        	BCLR	_flag1,2
00017a   3403     jbclr   0x3, 0           	JBCLR	STATUS,0
00017b   392e     bset    0x2e, 0x2        	BSET	_flag1,2
                                           ;;unsigned compare: left < lit(0x3=3), size=1
                                           _00384_DS_
                                           ;	.line	543; "MC30P6280.c"	if (bat_lev >= BAT_LEV_3V3) {
00017c   0b03     movai   0x3              	MOVAI	0x03
00017d   1232     rsubar  0x32             	RSUBAR	_bat_lev
00017e   3003     jbset   0x3, 0           	JBSET	STATUS,0
00017f   2981     goto    0x181            	GOTO	_00386_DS_
                                           ;;genSkipc:3291: created from rifx:013B5EFC
                                           ;	.line	544; "MC30P6280.c"	flag_led_1_on = 1; // Ö¸ĘľµĆłŁÁÁŁ¬˛»ÉÁË¸
000180   392e     bset    0x2e, 0x2        	BSET	_flag1,2
                                           ;;unsigned compare: left < lit(0x4=4), size=1
                                           _00386_DS_
                                           ;	.line	547; "MC30P6280.c"	if (bat_lev >= BAT_LEV_3V6) {
000181   0b04     movai   0x4              	MOVAI	0x04
000182   1232     rsubar  0x32             	RSUBAR	_bat_lev
000183   3003     jbset   0x3, 0           	JBSET	STATUS,0
000184   2986     goto    0x186            	GOTO	_00388_DS_
                                           ;;genSkipc:3291: created from rifx:013B5EFC
                                           ;	.line	548; "MC30P6280.c"	flag_led_2_on = 1; // Ö¸ĘľµĆłŁÁÁŁ¬˛»ÉÁË¸
000185   39ae     bset    0x2e, 0x3        	BSET	_flag1,3
                                           ;;unsigned compare: left < lit(0x5=5), size=1
                                           _00388_DS_
                                           ;	.line	551; "MC30P6280.c"	if (bat_lev >= BAT_LEV_4V0) {
000186   0b05     movai   0x5              	MOVAI	0x05
000187   1232     rsubar  0x32             	RSUBAR	_bat_lev
000188   3003     jbset   0x3, 0           	JBSET	STATUS,0
000189   298b     goto    0x18b            	GOTO	_00390_DS_
                                           ;;genSkipc:3291: created from rifx:013B5EFC
                                           ;	.line	552; "MC30P6280.c"	flag_led_3_on = 1; // Ö¸ĘľµĆłŁÁÁŁ¬˛»ÉÁË¸
00018a   3a2e     bset    0x2e, 0x4        	BSET	_flag1,4
                                           ;;unsigned compare: left < lit(0x6=6), size=1
                                           _00390_DS_
                                           ;	.line	555; "MC30P6280.c"	if (bat_lev >= BAT_LEV_4V2) {
00018b   0b06     movai   0x6              	MOVAI	0x06
00018c   1232     rsubar  0x32             	RSUBAR	_bat_lev
00018d   3003     jbset   0x3, 0           	JBSET	STATUS,0
00018e   29c9     goto    0x1c9            	GOTO	_00416_DS_
                                           ;;genSkipc:3291: created from rifx:013B5EFC
                                           ;	.line	558; "MC30P6280.c"	flag_led_4_on = 1; // Ö¸ĘľµĆłŁÁÁŁ¬˛»ÉÁË¸
00018f   3aae     bset    0x2e, 0x5        	BSET	_flag1,5
000190   29c9     goto    0x1c9            	GOTO	_00416_DS_
                                           _00412_DS_
                                           ;	.line	580; "MC30P6280.c"	} else if (flag_is_dev_working) {
000191   332e     jbset   0x2e, 0x6        	JBSET	_flag1,6
000192   29c5     goto    0x1c5            	GOTO	_00409_DS_
                                           ;;unsigned compare: left < lit(0x5=5), size=1
                                           ;	.line	589; "MC30P6280.c"	if (bat_lev >= BAT_LEV_4V0) {
000193   0b05     movai   0x5              	MOVAI	0x05
000194   1232     rsubar  0x32             	RSUBAR	_bat_lev
000195   3003     jbset   0x3, 0           	JBSET	STATUS,0
000196   299c     goto    0x19c            	GOTO	_00406_DS_
                                           ;;genSkipc:3291: created from rifx:013B5EFC
                                           ;	.line	590; "MC30P6280.c"	flag_led_4_on = 1;
000197   3aae     bset    0x2e, 0x5        	BSET	_flag1,5
                                           ;	.line	591; "MC30P6280.c"	flag_led_3_on = 1;
000198   3a2e     bset    0x2e, 0x4        	BSET	_flag1,4
                                           ;	.line	592; "MC30P6280.c"	flag_led_2_on = 1;
000199   39ae     bset    0x2e, 0x3        	BSET	_flag1,3
                                           ;	.line	593; "MC30P6280.c"	flag_led_1_on = 1;
00019a   392e     bset    0x2e, 0x2        	BSET	_flag1,2
00019b   29c9     goto    0x1c9            	GOTO	_00416_DS_
                                           ;;unsigned compare: left < lit(0x4=4), size=1
                                           _00406_DS_
                                           ;	.line	594; "MC30P6280.c"	} else if (bat_lev >= BAT_LEV_3V6) {
00019c   0b04     movai   0x4              	MOVAI	0x04
00019d   1232     rsubar  0x32             	RSUBAR	_bat_lev
00019e   3003     jbset   0x3, 0           	JBSET	STATUS,0
00019f   29a5     goto    0x1a5            	GOTO	_00403_DS_
                                           ;;genSkipc:3291: created from rifx:013B5EFC
                                           ;	.line	595; "MC30P6280.c"	flag_led_4_on = 0;
0001a0   3eae     bclr    0x2e, 0x5        	BCLR	_flag1,5
                                           ;	.line	596; "MC30P6280.c"	flag_led_3_on = 1;
0001a1   3a2e     bset    0x2e, 0x4        	BSET	_flag1,4
                                           ;	.line	597; "MC30P6280.c"	flag_led_2_on = 1;
0001a2   39ae     bset    0x2e, 0x3        	BSET	_flag1,3
                                           ;	.line	598; "MC30P6280.c"	flag_led_1_on = 1;
0001a3   392e     bset    0x2e, 0x2        	BSET	_flag1,2
0001a4   29c9     goto    0x1c9            	GOTO	_00416_DS_
                                           ;;unsigned compare: left < lit(0x3=3), size=1
                                           _00403_DS_
                                           ;	.line	599; "MC30P6280.c"	} else if (bat_lev >= BAT_LEV_3V3) {
0001a5   0b03     movai   0x3              	MOVAI	0x03
0001a6   1232     rsubar  0x32             	RSUBAR	_bat_lev
0001a7   3003     jbset   0x3, 0           	JBSET	STATUS,0
0001a8   29ae     goto    0x1ae            	GOTO	_00400_DS_
                                           ;;genSkipc:3291: created from rifx:013B5EFC
                                           ;	.line	600; "MC30P6280.c"	flag_led_4_on = 0;
0001a9   3eae     bclr    0x2e, 0x5        	BCLR	_flag1,5
                                           ;	.line	601; "MC30P6280.c"	flag_led_3_on = 0;
0001aa   3e2e     bclr    0x2e, 0x4        	BCLR	_flag1,4
                                           ;	.line	602; "MC30P6280.c"	flag_led_2_on = 1;
0001ab   39ae     bset    0x2e, 0x3        	BSET	_flag1,3
                                           ;	.line	603; "MC30P6280.c"	flag_led_1_on = 1;
0001ac   392e     bset    0x2e, 0x2        	BSET	_flag1,2
0001ad   29c9     goto    0x1c9            	GOTO	_00416_DS_
                                           ;;unsigned compare: left < lit(0x2=2), size=1
                                           _00400_DS_
                                           ;	.line	604; "MC30P6280.c"	} else if (bat_lev >= BAT_LEV_3V2) {
0001ae   0b02     movai   0x2              	MOVAI	0x02
0001af   1232     rsubar  0x32             	RSUBAR	_bat_lev
0001b0   3003     jbset   0x3, 0           	JBSET	STATUS,0
0001b1   29b7     goto    0x1b7            	GOTO	_00397_DS_
                                           ;;genSkipc:3291: created from rifx:013B5EFC
                                           ;	.line	605; "MC30P6280.c"	flag_led_4_on = 0;
0001b2   3eae     bclr    0x2e, 0x5        	BCLR	_flag1,5
                                           ;	.line	606; "MC30P6280.c"	flag_led_3_on = 0;
0001b3   3e2e     bclr    0x2e, 0x4        	BCLR	_flag1,4
                                           ;	.line	607; "MC30P6280.c"	flag_led_2_on = 0;
0001b4   3dae     bclr    0x2e, 0x3        	BCLR	_flag1,3
                                           ;	.line	608; "MC30P6280.c"	flag_led_1_on = 1;
0001b5   392e     bset    0x2e, 0x2        	BSET	_flag1,2
0001b6   29c9     goto    0x1c9            	GOTO	_00416_DS_
                                           _00397_DS_
                                           ;	.line	611; "MC30P6280.c"	flag_led_4_on = 0;
0001b7   3eae     bclr    0x2e, 0x5        	BCLR	_flag1,5
                                           ;	.line	612; "MC30P6280.c"	flag_led_3_on = 0;
0001b8   3e2e     bclr    0x2e, 0x4        	BCLR	_flag1,4
                                           ;	.line	613; "MC30P6280.c"	flag_led_2_on = 0;
0001b9   3dae     bclr    0x2e, 0x3        	BCLR	_flag1,3
                                           ;	.line	615; "MC30P6280.c"	flag_led_1_on = ~flag_led_1_on;
0001ba   1da1     clrr    0x21             	CLRR	r0x1020
0001bb   352e     jbclr   0x2e, 0x2        	JBCLR	_flag1,2
0001bc   19a1     incr    0x21             	INCR	r0x1020
0001bd   1c21     comar   0x21             	COMAR	r0x1020
0001be   15a1     movra   0x21             	MOVRA	r0x1020
0001bf   1321     rrar    0x21             	RRAR	r0x1020
0001c0   3003     jbset   0x3, 0           	JBSET	STATUS,0
0001c1   3d2e     bclr    0x2e, 0x2        	BCLR	_flag1,2
0001c2   3403     jbclr   0x3, 0           	JBCLR	STATUS,0
0001c3   392e     bset    0x2e, 0x2        	BSET	_flag1,2
0001c4   29c9     goto    0x1c9            	GOTO	_00416_DS_
                                           _00409_DS_
                                           ;	.line	619; "MC30P6280.c"	flag_led_1_on = 0;
0001c5   3d2e     bclr    0x2e, 0x2        	BCLR	_flag1,2
                                           ;	.line	620; "MC30P6280.c"	flag_led_2_on = 0;
0001c6   3dae     bclr    0x2e, 0x3        	BCLR	_flag1,3
                                           ;	.line	621; "MC30P6280.c"	flag_led_3_on = 0;
0001c7   3e2e     bclr    0x2e, 0x4        	BCLR	_flag1,4
                                           ;	.line	622; "MC30P6280.c"	flag_led_4_on = 0;
0001c8   3eae     bclr    0x2e, 0x5        	BCLR	_flag1,5
                                           _00416_DS_
                                           ;	.line	625; "MC30P6280.c"	}
0001c9   000c     return                   	RETURN	
                                           ; exit point of _led_status_handle
                                           
                                           ;***
                                           ;  pBlock Stats: dbName = C
                                           ;***
                                           ;entry:  _key_scan	;Function start
                                           ; 2 exit points
                                           ;has an exit
                                           ;functions called:
                                           ;   _led_all_off
                                           ;   _pen_pwr_on
                                           ;   _pen_pwr_off
                                           ;   _led_all_off
                                           ;   _pen_pwr_on
                                           ;   _pen_pwr_off
                                           ;1 compiler assigned register :
                                           ;   r0x1021
                                           ;; Starting pCode block
                                           _key_scan	;Function start
                                           ; 2 exit points
                                           ;	.line	354; "MC30P6280.c"	if (flag_is_in_charging) {
0001ca   302e     jbset   0x2e, 0          	JBSET	_flag1,0
0001cb   29d4     goto    0x1d4            	GOTO	_00263_DS_
                                           ;	.line	356; "MC30P6280.c"	last_key_id = 0;
0001cc   1db7     clrr    0x37             	CLRR	_last_key_id
                                           ;	.line	357; "MC30P6280.c"	press_cnt = 0;
0001cd   1db8     clrr    0x38             	CLRR	_press_cnt
                                           ;	.line	358; "MC30P6280.c"	filter_cnt = 0;
0001ce   1db9     clrr    0x39             	CLRR	_filter_cnt
                                           ;	.line	359; "MC30P6280.c"	filter_key_id = 0;
0001cf   1dba     clrr    0x3a             	CLRR	_filter_key_id
                                           ;	.line	360; "MC30P6280.c"	click_delay_cnt = 0;
0001d0   1dbb     clrr    0x3b             	CLRR	_click_delay_cnt
                                           ;	.line	361; "MC30P6280.c"	click_cnt = 0;
0001d1   1dbc     clrr    0x3c             	CLRR	_click_cnt
                                           ;	.line	362; "MC30P6280.c"	cur_key_id = 0;
0001d2   1dbd     clrr    0x3d             	CLRR	_cur_key_id
                                           ;	.line	363; "MC30P6280.c"	return;
0001d3   2a37     goto    0x237            	GOTO	_00295_DS_
                                           _00263_DS_
                                           ;	.line	366; "MC30P6280.c"	led_all_off();
0001d4   224c     call    0x24c            	CALL	_led_all_off
                                           ;	.line	369; "MC30P6280.c"	PUCON &= ~(0x01 << 0); // ÉĎŔ­µç×č 20K
0001d5   3c0d     bclr    0xd, 0           	BCLR	_PUCON,0
                                           ;	.line	370; "MC30P6280.c"	DDR1 |= 0x01 << 0;     // ĘäČëÄŁĘ˝
0001d6   3846     bset    0x46, 0          	BSET	_DDR1,0
                                           ;	.line	377; "MC30P6280.c"	if (1 == KEY_SCAN_PIN) {
0001d7   1da0     clrr    0x20             	CLRR	r0x1021
0001d8   3406     jbclr   0x6, 0           	JBCLR	_P1bits,0
0001d9   19a0     incr    0x20             	INCR	r0x1021
0001da   1620     movar   0x20             	MOVAR	r0x1021
0001db   0801     xorai   0x1              	XORAI	0x01
0001dc   3103     jbset   0x3, 0x2         	JBSET	STATUS,2
0001dd   29e0     goto    0x1e0            	GOTO	_00265_DS_
                                           ;	.line	378; "MC30P6280.c"	cur_key_id = KEY_ID_NONE;
0001de   1dbd     clrr    0x3d             	CLRR	_cur_key_id
0001df   29e5     goto    0x1e5            	GOTO	_00266_DS_
                                           _00265_DS_
                                           ;	.line	381; "MC30P6280.c"	cur_key_id = KEY_ID_VAILD;
0001e0   0b01     movai   0x1              	MOVAI	0x01
0001e1   15bd     movra   0x3d             	MOVRA	_cur_key_id
                                           ;	.line	385; "MC30P6280.c"	pwr_off_cnt = 0;
0001e2   1da8     clrr    0x28             	CLRR	_pwr_off_cnt
0001e3   1da9     clrr    0x29             	CLRR	(_pwr_off_cnt + 1)
                                           ;	.line	386; "MC30P6280.c"	into_low_power_cnt = 0;
0001e4   1db3     clrr    0x33             	CLRR	_into_low_power_cnt
                                           _00266_DS_
                                           ;	.line	389; "MC30P6280.c"	if (cur_key_id != filter_key_id) {
0001e5   163a     movar   0x3a             	MOVAR	_filter_key_id
0001e6   103d     xorar   0x3d             	XORAR	_cur_key_id
0001e7   3103     jbset   0x3, 0x2         	JBSET	STATUS,2
0001e8   29ea     goto    0x1ea            	GOTO	_00349_DS_
0001e9   29ee     goto    0x1ee            	GOTO	_00268_DS_
                                           _00349_DS_
                                           ;	.line	391; "MC30P6280.c"	filter_cnt = 0;
0001ea   1db9     clrr    0x39             	CLRR	_filter_cnt
                                           ;	.line	392; "MC30P6280.c"	filter_key_id = cur_key_id;
0001eb   163d     movar   0x3d             	MOVAR	_cur_key_id
0001ec   15ba     movra   0x3a             	MOVRA	_filter_key_id
                                           ;	.line	393; "MC30P6280.c"	return;
0001ed   2a37     goto    0x237            	GOTO	_00295_DS_
                                           ;;unsigned compare: left < lit(0x3=3), size=1
                                           _00268_DS_
                                           ;	.line	396; "MC30P6280.c"	if (filter_cnt < KEY_FILTER_TIMES) {
0001ee   0b03     movai   0x3              	MOVAI	0x03
0001ef   1239     rsubar  0x39             	RSUBAR	_filter_cnt
0001f0   3403     jbclr   0x3, 0           	JBCLR	STATUS,0
0001f1   29f4     goto    0x1f4            	GOTO	_00270_DS_
                                           ;;genSkipc:3291: created from rifx:013B5EFC
                                           ;	.line	399; "MC30P6280.c"	filter_cnt++;
0001f2   19b9     incr    0x39             	INCR	_filter_cnt
                                           ;	.line	400; "MC30P6280.c"	return;
0001f3   2a37     goto    0x237            	GOTO	_00295_DS_
                                           _00270_DS_
                                           ;	.line	404; "MC30P6280.c"	if (last_key_id != cur_key_id) {
0001f4   163d     movar   0x3d             	MOVAR	_cur_key_id
0001f5   1037     xorar   0x37             	XORAR	_last_key_id
0001f6   3103     jbset   0x3, 0x2         	JBSET	STATUS,2
0001f7   29f9     goto    0x1f9            	GOTO	_00351_DS_
0001f8   2a02     goto    0x202            	GOTO	_00293_DS_
                                           _00351_DS_
                                           ;	.line	407; "MC30P6280.c"	if (cur_key_id == KEY_ID_NONE) {
0001f9   0b00     movai   0                	MOVAI	0x00
0001fa   173d     orar    0x3d             	ORAR	_cur_key_id
0001fb   3103     jbset   0x3, 0x2         	JBSET	STATUS,2
0001fc   29ff     goto    0x1ff            	GOTO	_00272_DS_
                                           ;	.line	409; "MC30P6280.c"	click_delay_cnt = 0;
0001fd   1dbb     clrr    0x3b             	CLRR	_click_delay_cnt
0001fe   2a35     goto    0x235            	GOTO	_00294_DS_
                                           _00272_DS_
                                           ;	.line	413; "MC30P6280.c"	press_cnt = 0; // ÖŘÖĂ°´Ľü°´ĎÂĘ±ĽäĽĆĘý
0001ff   1db8     clrr    0x38             	CLRR	_press_cnt
                                           ;	.line	414; "MC30P6280.c"	click_cnt++;
000200   19bc     incr    0x3c             	INCR	_click_cnt
000201   2a35     goto    0x235            	GOTO	_00294_DS_
                                           _00293_DS_
                                           ;	.line	424; "MC30P6280.c"	if (cur_key_id == KEY_ID_NONE) { // Ă»ÓĐ°´Ľü°´ĎÂŁ¬ËµĂ÷ËÉĘÖ
000202   0b00     movai   0                	MOVAI	0x00
000203   173d     orar    0x3d             	ORAR	_cur_key_id
000204   3103     jbset   0x3, 0x2         	JBSET	STATUS,2
000205   2a30     goto    0x230            	GOTO	_00290_DS_
                                           ;	.line	425; "MC30P6280.c"	if (click_cnt > 0) {
000206   0b00     movai   0                	MOVAI	0x00
000207   173c     orar    0x3c             	ORAR	_click_cnt
000208   3503     jbclr   0x3, 0x2         	JBCLR	STATUS,2
000209   2a35     goto    0x235            	GOTO	_00294_DS_
                                           ;;unsigned compare: left < lit(0x1E=30), size=1
                                           ;	.line	426; "MC30P6280.c"	if (click_delay_cnt >= KEY_CLICK_DELAY_TIME) {
00020a   0b1e     movai   0x1e             	MOVAI	0x1e
00020b   123b     rsubar  0x3b             	RSUBAR	_click_delay_cnt
00020c   3003     jbset   0x3, 0           	JBSET	STATUS,0
00020d   2a2a     goto    0x22a            	GOTO	_00283_DS_
                                           ;;genSkipc:3291: created from rifx:013B5EFC
                                           ;	.line	427; "MC30P6280.c"	if (click_cnt == 1) {
00020e   163c     movar   0x3c             	MOVAR	_click_cnt
00020f   0801     xorai   0x1              	XORAI	0x01
000210   3103     jbset   0x3, 0x2         	JBSET	STATUS,2
000211   2a13     goto    0x213            	GOTO	_00353_DS_
000212   2a28     goto    0x228            	GOTO	_00279_DS_
                                           _00353_DS_
                                           ;	.line	432; "MC30P6280.c"	flag_is_dev_working = ~flag_is_dev_working;
000213   1da0     clrr    0x20             	CLRR	r0x1021
000214   372e     jbclr   0x2e, 0x6        	JBCLR	_flag1,6
000215   19a0     incr    0x20             	INCR	r0x1021
000216   1c20     comar   0x20             	COMAR	r0x1021
000217   15a0     movra   0x20             	MOVRA	r0x1021
000218   1320     rrar    0x20             	RRAR	r0x1021
000219   3003     jbset   0x3, 0           	JBSET	STATUS,0
00021a   3f2e     bclr    0x2e, 0x6        	BCLR	_flag1,6
00021b   3403     jbclr   0x3, 0           	JBCLR	STATUS,0
00021c   3b2e     bset    0x2e, 0x6        	BSET	_flag1,6
                                           ;	.line	436; "MC30P6280.c"	if (flag_is_dev_working) {
00021d   332e     jbset   0x2e, 0x6        	JBSET	_flag1,6
00021e   2a23     goto    0x223            	GOTO	_00275_DS_
                                           ;	.line	437; "MC30P6280.c"	pen_pwr_on();
00021f   2255     call    0x255            	CALL	_pen_pwr_on
                                           ;	.line	439; "MC30P6280.c"	led_sta_reflash_cnt = (u8)(500 / 10);
000220   0b32     movai   0x32             	MOVAI	0x32
000221   15b5     movra   0x35             	MOVRA	_led_sta_reflash_cnt
000222   2a28     goto    0x228            	GOTO	_00279_DS_
                                           _00275_DS_
                                           ;	.line	442; "MC30P6280.c"	pen_pwr_off();
000223   2251     call    0x251            	CALL	_pen_pwr_off
                                           ;	.line	443; "MC30P6280.c"	flag_led_1_on = 0;
000224   3d2e     bclr    0x2e, 0x2        	BCLR	_flag1,2
                                           ;	.line	444; "MC30P6280.c"	flag_led_2_on = 0;
000225   3dae     bclr    0x2e, 0x3        	BCLR	_flag1,3
                                           ;	.line	445; "MC30P6280.c"	flag_led_3_on = 0;
000226   3e2e     bclr    0x2e, 0x4        	BCLR	_flag1,4
                                           ;	.line	446; "MC30P6280.c"	flag_led_4_on = 0;
000227   3eae     bclr    0x2e, 0x5        	BCLR	_flag1,5
                                           _00279_DS_
                                           ;	.line	450; "MC30P6280.c"	click_cnt = 0; // ´¦ŔíÍęĘÂĽţşó,ÇĺżŐÁ¬»÷µÄ´ÎĘý
000228   1dbc     clrr    0x3c             	CLRR	_click_cnt
000229   2a35     goto    0x235            	GOTO	_00294_DS_
                                           ;;unsigned compare: left < lit(0xFF=255), size=1
                                           _00283_DS_
                                           ;	.line	452; "MC30P6280.c"	if (click_delay_cnt < 255) {
00022a   0bff     movai   0xff             	MOVAI	0xff
00022b   123b     rsubar  0x3b             	RSUBAR	_click_delay_cnt
00022c   3403     jbclr   0x3, 0           	JBCLR	STATUS,0
00022d   2a35     goto    0x235            	GOTO	_00294_DS_
                                           ;;genSkipc:3291: created from rifx:013B5EFC
                                           ;	.line	454; "MC30P6280.c"	click_delay_cnt++;
00022e   19bb     incr    0x3b             	INCR	_click_delay_cnt
00022f   2a35     goto    0x235            	GOTO	_00294_DS_
                                           ;;unsigned compare: left < lit(0xFF=255), size=1
                                           _00290_DS_
                                           ;	.line	463; "MC30P6280.c"	if (press_cnt < 255) {
000230   0bff     movai   0xff             	MOVAI	0xff
000231   1238     rsubar  0x38             	RSUBAR	_press_cnt
000232   3403     jbclr   0x3, 0           	JBCLR	STATUS,0
000233   2a35     goto    0x235            	GOTO	_00294_DS_
                                           ;;genSkipc:3291: created from rifx:013B5EFC
                                           ;	.line	464; "MC30P6280.c"	press_cnt++;
000234   19b8     incr    0x38             	INCR	_press_cnt
                                           _00294_DS_
                                           ;	.line	469; "MC30P6280.c"	last_key_id = cur_key_id;
000235   163d     movar   0x3d             	MOVAR	_cur_key_id
000236   15b7     movra   0x37             	MOVRA	_last_key_id
                                           _00295_DS_
                                           ;	.line	470; "MC30P6280.c"	}
000237   000c     return                   	RETURN	
                                           ; exit point of _key_scan
                                           
                                           ;***
                                           ;  pBlock Stats: dbName = C
                                           ;***
                                           ;entry:  _led4_on	;Function start
                                           ; 2 exit points
                                           ;has an exit
                                           ;; Starting pCode block
                                           _led4_on	;Function start
                                           ; 2 exit points
                                           ;	.line	344; "MC30P6280.c"	P1 &= ~(0x01 << 0);   // P10 ĘäłöµÍµçĆ˝
000238   3c06     bclr    0x6, 0           	BCLR	_P1,0
                                           ;	.line	345; "MC30P6280.c"	DDR1 &= ~(0x01 << 0); // P10 ĘäłöÄŁĘ˝
000239   3c46     bclr    0x46, 0          	BCLR	_DDR1,0
                                           ;	.line	347; "MC30P6280.c"	P1 |= (0x01 << 2);    // P12 Ęäłö¸ßµçĆ˝
00023a   3906     bset    0x6, 0x2         	BSET	_P1,2
                                           ;	.line	348; "MC30P6280.c"	DDR1 &= ~(0x01 << 2); // P12 ĘäłöÄŁĘ˝
00023b   3d46     bclr    0x46, 0x2        	BCLR	_DDR1,2
                                           ;	.line	349; "MC30P6280.c"	}
00023c   000c     return                   	RETURN	
                                           ; exit point of _led4_on
                                           
                                           ;***
                                           ;  pBlock Stats: dbName = C
                                           ;***
                                           ;entry:  _led3_on	;Function start
                                           ; 2 exit points
                                           ;has an exit
                                           ;; Starting pCode block
                                           _led3_on	;Function start
                                           ; 2 exit points
                                           ;	.line	332; "MC30P6280.c"	P1 &= ~(0x01 << 2);   // P12 ĘäłöµÍµçĆ˝
00023d   3d06     bclr    0x6, 0x2         	BCLR	_P1,2
                                           ;	.line	333; "MC30P6280.c"	DDR1 &= ~(0x01 << 2); // P12 ĘäłöÄŁĘ˝
00023e   3d46     bclr    0x46, 0x2        	BCLR	_DDR1,2
                                           ;	.line	335; "MC30P6280.c"	P1 |= (0x01 << 0);    // P10 Ęäłö¸ßµçĆ˝
00023f   3806     bset    0x6, 0           	BSET	_P1,0
                                           ;	.line	336; "MC30P6280.c"	DDR1 &= ~(0x01 << 0); // P10 ĘäłöÄŁĘ˝
000240   3c46     bclr    0x46, 0          	BCLR	_DDR1,0
                                           ;	.line	337; "MC30P6280.c"	}
000241   000c     return                   	RETURN	
                                           ; exit point of _led3_on
                                           
                                           ;***
                                           ;  pBlock Stats: dbName = C
                                           ;***
                                           ;entry:  _led2_on	;Function start
                                           ; 2 exit points
                                           ;has an exit
                                           ;; Starting pCode block
                                           _led2_on	;Function start
                                           ; 2 exit points
                                           ;	.line	319; "MC30P6280.c"	P1 &= ~(0x01 << 1);   // P11 ĘäłöµÍµçĆ˝
000242   3c86     bclr    0x6, 0x1         	BCLR	_P1,1
                                           ;	.line	320; "MC30P6280.c"	DDR1 &= ~(0x01 << 1); // P11 ĘäłöÄŁĘ˝
000243   3cc6     bclr    0x46, 0x1        	BCLR	_DDR1,1
                                           ;	.line	323; "MC30P6280.c"	P1 |= (0x01 << 0);    // P10 Ęäłö¸ßµçĆ˝
000244   3806     bset    0x6, 0           	BSET	_P1,0
                                           ;	.line	324; "MC30P6280.c"	DDR1 &= ~(0x01 << 0); // P10 ĘäłöÄŁĘ˝
000245   3c46     bclr    0x46, 0          	BCLR	_DDR1,0
                                           ;	.line	325; "MC30P6280.c"	}
000246   000c     return                   	RETURN	
                                           ; exit point of _led2_on
                                           
                                           ;***
                                           ;  pBlock Stats: dbName = C
                                           ;***
                                           ;entry:  _led1_on	;Function start
                                           ; 2 exit points
                                           ;has an exit
                                           ;; Starting pCode block
                                           _led1_on	;Function start
                                           ; 2 exit points
                                           ;	.line	304; "MC30P6280.c"	P1 &= ~(0x01 << 0);
000247   3c06     bclr    0x6, 0           	BCLR	_P1,0
                                           ;	.line	305; "MC30P6280.c"	DDR1 &= ~(0x01 << 0); // ĘäłöÄŁĘ˝
000248   3c46     bclr    0x46, 0          	BCLR	_DDR1,0
                                           ;	.line	309; "MC30P6280.c"	P1 |= (0x01 << 1);    // P11 Ęäłö¸ßµçĆ˝
000249   3886     bset    0x6, 0x1         	BSET	_P1,1
                                           ;	.line	310; "MC30P6280.c"	DDR1 &= ~(0x01 << 1); // P11 ĘäłöÄŁĘ˝
00024a   3cc6     bclr    0x46, 0x1        	BCLR	_DDR1,1
                                           ;	.line	311; "MC30P6280.c"	}
00024b   000c     return                   	RETURN	
                                           ; exit point of _led1_on
                                           
                                           ;***
                                           ;  pBlock Stats: dbName = C
                                           ;***
                                           ;entry:  _led_all_off	;Function start
                                           ; 2 exit points
                                           ;has an exit
                                           ;; Starting pCode block
                                           _led_all_off	;Function start
                                           ; 2 exit points
                                           ;	.line	289; "MC30P6280.c"	PUCON |= (0x01 << 0 | 0x01 << 1 | 0x01 << 2);
00024c   0b07     movai   0x7              	MOVAI	0x07
00024d   178d     orra    0xd              	ORRA	_PUCON
                                           ;	.line	294; "MC30P6280.c"	(0x01 << 2);  // P12
00024e   0b07     movai   0x7              	MOVAI	0x07
00024f   17c6     orra    0x46             	ORRA	_DDR1
                                           ;	.line	296; "MC30P6280.c"	}
000250   000c     return                   	RETURN	
                                           ; exit point of _led_all_off
                                           
                                           ;***
                                           ;  pBlock Stats: dbName = C
                                           ;***
                                           ;entry:  _pen_pwr_off	;Function start
                                           ; 2 exit points
                                           ;has an exit
                                           ;; Starting pCode block
                                           _pen_pwr_off	;Function start
                                           ; 2 exit points
                                           ;	.line	275; "MC30P6280.c"	PUCON |= (0x01 << 4); // ˛»ĘąÄÜÉĎŔ­
000251   3a0d     bset    0xd, 0x4         	BSET	_PUCON,4
                                           ;	.line	276; "MC30P6280.c"	PDCON |= (0x01 << 4); // ˛»ĘąÄÜĎÂŔ­
000252   3a0b     bset    0xb, 0x4         	BSET	_PDCON,4
                                           ;	.line	277; "MC30P6280.c"	DDR1 |= 0x01 << 4;    // P14 ĘäČëÄŁĘ˝
000253   3a46     bset    0x46, 0x4        	BSET	_DDR1,4
                                           ;	.line	279; "MC30P6280.c"	}
000254   000c     return                   	RETURN	
                                           ; exit point of _pen_pwr_off
                                           
                                           ;***
                                           ;  pBlock Stats: dbName = C
                                           ;***
                                           ;entry:  _pen_pwr_on	;Function start
                                           ; 2 exit points
                                           ;has an exit
                                           ;; Starting pCode block
                                           _pen_pwr_on	;Function start
                                           ; 2 exit points
                                           ;	.line	266; "MC30P6280.c"	DDR1 &= ~(0x01 << 4); // ĘäłöÄŁĘ˝
000255   3e46     bclr    0x46, 0x4        	BCLR	_DDR1,4
                                           ;	.line	267; "MC30P6280.c"	P14D = 0;             // ĘäłöµÍµçĆ˝
000256   3e06     bclr    0x6, 0x4         	BCLR	_P1bits,4
                                           ;	.line	269; "MC30P6280.c"	}
000257   000c     return                   	RETURN	
                                           ; exit point of _pen_pwr_on
                                           
                                           ;***
                                           ;  pBlock Stats: dbName = C
                                           ;***
                                           ;entry:  _user_init	;Function start
                                           ; 2 exit points
                                           ;has an exit
                                           ;functions called:
                                           ;   _timer0_init
                                           ;   _timer1_init
                                           ;   _delay_ms
                                           ;   _timer0_init
                                           ;   _timer1_init
                                           ;   _delay_ms
                                           ;3 compiler assigned registers:
                                           ;   STK02
                                           ;   STK01
                                           ;   STK00
                                           ;; Starting pCode block
                                           _user_init	;Function start
                                           ; 2 exit points
                                           ;	.line	236; "MC30P6280.c"	PUCON &= ~(0x01 << 0); // ÉĎŔ­µç×č 20K
000258   3c0d     bclr    0xd, 0           	BCLR	_PUCON,0
                                           ;	.line	237; "MC30P6280.c"	DDR1 |= 0x01 << 0;     // ĘäČëÄŁĘ˝
000259   3846     bset    0x46, 0          	BSET	_DDR1,0
                                           ;	.line	240; "MC30P6280.c"	DDR1 |= 0x01 << 4; // P14 ĘäČëÄŁĘ˝
00025a   3a46     bset    0x46, 0x4        	BSET	_DDR1,4
                                           ;	.line	243; "MC30P6280.c"	DDR1 |= 0x01 << 5; // ĘäČëÄŁĘ˝
00025b   3ac6     bset    0x46, 0x5        	BSET	_DDR1,5
                                           ;	.line	246; "MC30P6280.c"	DDR1 |= 0x01 << 3;
00025c   39c6     bset    0x46, 0x3        	BSET	_DDR1,3
                                           ;	.line	248; "MC30P6280.c"	timer0_init();
00025d   23c0     call    0x3c0            	CALL	_timer0_init
                                           ;	.line	249; "MC30P6280.c"	timer1_init();
00025e   2001     call    0x1              	CALL	_timer1_init
                                           ;	.line	259; "MC30P6280.c"	delay_ms(1); // µČ´ýĎµÍłÎČ¶¨
00025f   0b01     movai   0x1              	MOVAI	0x01
000260   1594     movra   0x14             	MOVRA	STK02
000261   0b00     movai   0                	MOVAI	0x00
000262   1595     movra   0x15             	MOVRA	STK01
000263   0b00     movai   0                	MOVAI	0x00
000264   1596     movra   0x16             	MOVRA	STK00
000265   0b00     movai   0                	MOVAI	0x00
000266   2268     call    0x268            	CALL	_delay_ms
                                           ;	.line	260; "MC30P6280.c"	}
000267   000c     return                   	RETURN	
                                           ; exit point of _user_init
                                           
                                           ;***
                                           ;  pBlock Stats: dbName = C
                                           ;***
                                           ;entry:  _delay_ms	;Function start
                                           ; 2 exit points
                                           ;has an exit
                                           ;11 compiler assigned registers:
                                           ;   r0x1017
                                           ;   STK00
                                           ;   r0x1018
                                           ;   STK01
                                           ;   r0x1019
                                           ;   STK02
                                           ;   r0x101A
                                           ;   r0x101B
                                           ;   r0x101C
                                           ;   r0x101D
                                           ;   r0x101E
                                           ;; Starting pCode block
                                           _delay_ms	;Function start
                                           ; 2 exit points
                                           ;	.line	220; "MC30P6280.c"	void delay_ms(u32 xms)
000268   159b     movra   0x1b             	MOVRA	r0x1017
000269   1616     movar   0x16             	MOVAR	STK00
00026a   159a     movra   0x1a             	MOVRA	r0x1018
00026b   1615     movar   0x15             	MOVAR	STK01
00026c   1599     movra   0x19             	MOVRA	r0x1019
00026d   1614     movar   0x14             	MOVAR	STK02
00026e   1598     movra   0x18             	MOVRA	r0x101A
                                           _00222_DS_
                                           ;	.line	222; "MC30P6280.c"	while (xms) {
00026f   1618     movar   0x18             	MOVAR	r0x101A
000270   1719     orar    0x19             	ORAR	r0x1019
000271   171a     orar    0x1a             	ORAR	r0x1018
000272   171b     orar    0x1b             	ORAR	r0x1017
000273   3503     jbclr   0x3, 0x2         	JBCLR	STATUS,2
000274   2a93     goto    0x293            	GOTO	_00225_DS_
                                           ;	.line	224; "MC30P6280.c"	while (i--) {
000275   0b13     movai   0x13             	MOVAI	0x13
000276   159c     movra   0x1c             	MOVRA	r0x101B
000277   0b02     movai   0x2              	MOVAI	0x02
000278   159d     movra   0x1d             	MOVRA	r0x101C
                                           _00219_DS_
000279   161c     movar   0x1c             	MOVAR	r0x101B
00027a   159e     movra   0x1e             	MOVRA	r0x101D
00027b   161d     movar   0x1d             	MOVAR	r0x101C
00027c   159f     movra   0x1f             	MOVRA	r0x101E
00027d   0bff     movai   0xff             	MOVAI	0xff
00027e   1f9c     addra   0x1c             	ADDRA	r0x101B
00027f   3003     jbset   0x3, 0           	JBSET	STATUS,0
000280   1b9d     decr    0x1d             	DECR	r0x101C
000281   161e     movar   0x1e             	MOVAR	r0x101D
000282   171f     orar    0x1f             	ORAR	r0x101E
000283   3503     jbclr   0x3, 0x2         	JBCLR	STATUS,2
000284   2a87     goto    0x287            	GOTO	_00221_DS_
                                           ;	.line	225; "MC30P6280.c"	Nop();
000285   0000     nop                      	nop	
000286   2a79     goto    0x279            	GOTO	_00219_DS_
                                           _00221_DS_
                                           ;	.line	227; "MC30P6280.c"	xms--;
000287   0bff     movai   0xff             	MOVAI	0xff
000288   1f98     addra   0x18             	ADDRA	r0x101A
000289   0bff     movai   0xff             	MOVAI	0xff
00028a   3003     jbset   0x3, 0           	JBSET	STATUS,0
00028b   1f99     addra   0x19             	ADDRA	r0x1019
00028c   0bff     movai   0xff             	MOVAI	0xff
00028d   3003     jbset   0x3, 0           	JBSET	STATUS,0
00028e   1f9a     addra   0x1a             	ADDRA	r0x1018
00028f   0bff     movai   0xff             	MOVAI	0xff
000290   3003     jbset   0x3, 0           	JBSET	STATUS,0
000291   1f9b     addra   0x1b             	ADDRA	r0x1017
000292   2a6f     goto    0x26f            	GOTO	_00222_DS_
                                           _00225_DS_
                                           ;	.line	229; "MC30P6280.c"	}
000293   000c     return                   	RETURN	
                                           ; exit point of _delay_ms
                                           
                                           ;***
                                           ;  pBlock Stats: dbName = C
                                           ;***
                                           ;entry:  _Sys_Init	;Function start
                                           ; 2 exit points
                                           ;has an exit
                                           ;functions called:
                                           ;   _C_RAM
                                           ;   _IO_Init
                                           ;   _C_RAM
                                           ;   _IO_Init
                                           ;; Starting pCode block
                                           _Sys_Init	;Function start
                                           ; 2 exit points
                                           ;	.line	212; "MC30P6280.c"	GIE = 0;
000294   3f8e     bclr    0xe, 0x7         	BCLR	_INTEbits,7
                                           ;	.line	213; "MC30P6280.c"	C_RAM();
000295   2354     call    0x354            	CALL	_C_RAM
                                           ;	.line	214; "MC30P6280.c"	IO_Init();
000296   234c     call    0x34c            	CALL	_IO_Init
                                           ;	.line	215; "MC30P6280.c"	GIE = 1;
000297   3b8e     bset    0xe, 0x7         	BSET	_INTEbits,7
                                           ;	.line	216; "MC30P6280.c"	}
000298   000c     return                   	RETURN	
                                           ; exit point of _Sys_Init
                                           
                                           ;***
                                           ;  pBlock Stats: dbName = C
                                           ;***
                                           ;entry:  _lvd_scan	;Function start
                                           ; 2 exit points
                                           ;has an exit
                                           ;1 compiler assigned register :
                                           ;   r0x1022
                                           ;; Starting pCode block
                                           _lvd_scan	;Function start
                                           ; 2 exit points
                                           ;	.line	94; "MC30P6280.c"	LVDEN = 1; // ĘąÄÜ LVD
000299   3808     bset    0x8, 0           	BSET	_MCRbits,0
                                           ;	.line	96; "MC30P6280.c"	switch (cur_lvd_state) {
00029a   1636     movar   0x36             	MOVAR	_cur_lvd_state
00029b   1597     movra   0x17             	MOVRA	r0x1022
                                           ;;swapping arguments (AOP_TYPEs 1/2)
                                           ;;unsigned compare: left >= lit(0xF=15), size=1
00029c   0b0f     movai   0xf              	MOVAI	0x0f
00029d   1217     rsubar  0x17             	RSUBAR	r0x1022
00029e   3403     jbclr   0x3, 0           	JBCLR	STATUS,0
00029f   2b08     goto    0x308            	GOTO	_00128_DS_
                                           ;;genSkipc:3291: created from rifx:013B5EFC
0002a0   0b02     movai   0x2              	MOVAI	HIGH(_00201_DS_)
0002a1   158a     movra   0xa              	MOVRA	PCLATH
0002a2   0ba7     movai   0xa7             	MOVAI	_00201_DS_
0002a3   1f17     addar   0x17             	ADDAR	r0x1022
0002a4   3403     jbclr   0x3, 0           	JBCLR	STATUS,0
0002a5   198a     incr    0xa              	INCR	PCLATH
0002a6   1582     movra   0x2              	MOVRA	PCL
                                           _00201_DS_
0002a7   2ab6     goto    0x2b6            	GOTO	_00114_DS_
0002a8   2ae7     goto    0x2e7            	GOTO	_00121_DS_
0002a9   2abd     goto    0x2bd            	GOTO	_00115_DS_
0002aa   2aec     goto    0x2ec            	GOTO	_00122_DS_
0002ab   2ac4     goto    0x2c4            	GOTO	_00116_DS_
0002ac   2af1     goto    0x2f1            	GOTO	_00123_DS_
0002ad   2acb     goto    0x2cb            	GOTO	_00117_DS_
0002ae   2af6     goto    0x2f6            	GOTO	_00124_DS_
0002af   2ad2     goto    0x2d2            	GOTO	_00118_DS_
0002b0   2afb     goto    0x2fb            	GOTO	_00125_DS_
0002b1   2ad9     goto    0x2d9            	GOTO	_00119_DS_
0002b2   2b00     goto    0x300            	GOTO	_00126_DS_
0002b3   2ae0     goto    0x2e0            	GOTO	_00120_DS_
0002b4   2b05     goto    0x305            	GOTO	_00127_DS_
0002b5   2ab6     goto    0x2b6            	GOTO	_00114_DS_
                                           _00114_DS_
                                           ;	.line	100; "MC30P6280.c"	MCR &= ~MCR_LVD_CFG_ALL;
0002b6   0be1     movai   0xe1             	MOVAI	0xe1
0002b7   1e88     andra   0x8              	ANDRA	_MCR
                                           ;	.line	101; "MC30P6280.c"	MCR |= MCR_LVD_CFG_4V2;
0002b8   0b1e     movai   0x1e             	MOVAI	0x1e
0002b9   1788     orra    0x8              	ORRA	_MCR
                                           ;	.line	102; "MC30P6280.c"	cur_lvd_state = LVD_LEV_4V2_SWITCHING;
0002ba   0b01     movai   0x1              	MOVAI	0x01
0002bb   15b6     movra   0x36             	MOVRA	_cur_lvd_state
                                           ;	.line	103; "MC30P6280.c"	break;
0002bc   2b08     goto    0x308            	GOTO	_00128_DS_
                                           _00115_DS_
                                           ;	.line	105; "MC30P6280.c"	MCR &= ~MCR_LVD_CFG_ALL;
0002bd   0be1     movai   0xe1             	MOVAI	0xe1
0002be   1e88     andra   0x8              	ANDRA	_MCR
                                           ;	.line	106; "MC30P6280.c"	MCR |= MCR_LVD_CFG_4V0;
0002bf   0b1c     movai   0x1c             	MOVAI	0x1c
0002c0   1788     orra    0x8              	ORRA	_MCR
                                           ;	.line	107; "MC30P6280.c"	cur_lvd_state = LVD_LEV_4V0_SWITCHING;
0002c1   0b03     movai   0x3              	MOVAI	0x03
0002c2   15b6     movra   0x36             	MOVRA	_cur_lvd_state
                                           ;	.line	108; "MC30P6280.c"	break;
0002c3   2b08     goto    0x308            	GOTO	_00128_DS_
                                           _00116_DS_
                                           ;	.line	110; "MC30P6280.c"	MCR &= ~MCR_LVD_CFG_ALL;
0002c4   0be1     movai   0xe1             	MOVAI	0xe1
0002c5   1e88     andra   0x8              	ANDRA	_MCR
                                           ;	.line	111; "MC30P6280.c"	MCR |= MCR_LVD_CFG_3V6;
0002c6   0b1a     movai   0x1a             	MOVAI	0x1a
0002c7   1788     orra    0x8              	ORRA	_MCR
                                           ;	.line	112; "MC30P6280.c"	cur_lvd_state = LVD_LEV_3V6_SWITCHING;
0002c8   0b05     movai   0x5              	MOVAI	0x05
0002c9   15b6     movra   0x36             	MOVRA	_cur_lvd_state
                                           ;	.line	113; "MC30P6280.c"	break;
0002ca   2b08     goto    0x308            	GOTO	_00128_DS_
                                           _00117_DS_
                                           ;	.line	115; "MC30P6280.c"	MCR &= ~MCR_LVD_CFG_ALL;
0002cb   0be1     movai   0xe1             	MOVAI	0xe1
0002cc   1e88     andra   0x8              	ANDRA	_MCR
                                           ;	.line	116; "MC30P6280.c"	MCR |= MCR_LVD_CFG_3V3;
0002cd   0b18     movai   0x18             	MOVAI	0x18
0002ce   1788     orra    0x8              	ORRA	_MCR
                                           ;	.line	117; "MC30P6280.c"	cur_lvd_state = LVD_LEV_3V3_SWITCHING;
0002cf   0b07     movai   0x7              	MOVAI	0x07
0002d0   15b6     movra   0x36             	MOVRA	_cur_lvd_state
                                           ;	.line	118; "MC30P6280.c"	break;
0002d1   2b08     goto    0x308            	GOTO	_00128_DS_
                                           _00118_DS_
                                           ;	.line	120; "MC30P6280.c"	MCR &= ~MCR_LVD_CFG_ALL;
0002d2   0be1     movai   0xe1             	MOVAI	0xe1
0002d3   1e88     andra   0x8              	ANDRA	_MCR
                                           ;	.line	121; "MC30P6280.c"	MCR |= MCR_LVD_CFG_3V2;
0002d4   0b16     movai   0x16             	MOVAI	0x16
0002d5   1788     orra    0x8              	ORRA	_MCR
                                           ;	.line	122; "MC30P6280.c"	cur_lvd_state = LVD_LEV_3V2_SWITCHING;
0002d6   0b09     movai   0x9              	MOVAI	0x09
0002d7   15b6     movra   0x36             	MOVRA	_cur_lvd_state
                                           ;	.line	123; "MC30P6280.c"	break;
0002d8   2b08     goto    0x308            	GOTO	_00128_DS_
                                           _00119_DS_
                                           ;	.line	125; "MC30P6280.c"	MCR &= ~MCR_LVD_CFG_ALL;
0002d9   0be1     movai   0xe1             	MOVAI	0xe1
0002da   1e88     andra   0x8              	ANDRA	_MCR
                                           ;	.line	126; "MC30P6280.c"	MCR |= MCR_LVD_CFG_3V0;
0002db   0b14     movai   0x14             	MOVAI	0x14
0002dc   1788     orra    0x8              	ORRA	_MCR
                                           ;	.line	127; "MC30P6280.c"	cur_lvd_state = LVD_LEV_3V0_SWITCHING;
0002dd   0b0b     movai   0xb              	MOVAI	0x0b
0002de   15b6     movra   0x36             	MOVRA	_cur_lvd_state
                                           ;	.line	128; "MC30P6280.c"	break;
0002df   2b08     goto    0x308            	GOTO	_00128_DS_
                                           _00120_DS_
                                           ;	.line	130; "MC30P6280.c"	MCR &= ~MCR_LVD_CFG_ALL;
0002e0   0be1     movai   0xe1             	MOVAI	0xe1
0002e1   1e88     andra   0x8              	ANDRA	_MCR
                                           ;	.line	131; "MC30P6280.c"	MCR |= MCR_LVD_CFG_2V9;
0002e2   0b12     movai   0x12             	MOVAI	0x12
0002e3   1788     orra    0x8              	ORRA	_MCR
                                           ;	.line	132; "MC30P6280.c"	cur_lvd_state = LVD_LEV_2V9_SWITCHING;
0002e4   0b0d     movai   0xd              	MOVAI	0x0d
0002e5   15b6     movra   0x36             	MOVRA	_cur_lvd_state
                                           ;	.line	133; "MC30P6280.c"	break;
0002e6   2b08     goto    0x308            	GOTO	_00128_DS_
                                           _00121_DS_
                                           ;	.line	136; "MC30P6280.c"	cur_lvd_state = LVD_LEV_4V2;
0002e7   0b02     movai   0x2              	MOVAI	0x02
0002e8   15b6     movra   0x36             	MOVRA	_cur_lvd_state
                                           ;	.line	137; "MC30P6280.c"	cur_cmp_bat_lev = BAT_LEV_4V2;
0002e9   0b06     movai   0x6              	MOVAI	0x06
0002ea   15b0     movra   0x30             	MOVRA	_cur_cmp_bat_lev
                                           ;	.line	138; "MC30P6280.c"	break;
0002eb   2b08     goto    0x308            	GOTO	_00128_DS_
                                           _00122_DS_
                                           ;	.line	140; "MC30P6280.c"	cur_lvd_state = LVD_LEV_4V0;
0002ec   0b04     movai   0x4              	MOVAI	0x04
0002ed   15b6     movra   0x36             	MOVRA	_cur_lvd_state
                                           ;	.line	141; "MC30P6280.c"	cur_cmp_bat_lev = BAT_LEV_4V0;
0002ee   0b05     movai   0x5              	MOVAI	0x05
0002ef   15b0     movra   0x30             	MOVRA	_cur_cmp_bat_lev
                                           ;	.line	142; "MC30P6280.c"	break;
0002f0   2b08     goto    0x308            	GOTO	_00128_DS_
                                           _00123_DS_
                                           ;	.line	144; "MC30P6280.c"	cur_lvd_state = LVD_LEV_3V6;
0002f1   0b06     movai   0x6              	MOVAI	0x06
0002f2   15b6     movra   0x36             	MOVRA	_cur_lvd_state
                                           ;	.line	145; "MC30P6280.c"	cur_cmp_bat_lev = BAT_LEV_3V6;
0002f3   0b04     movai   0x4              	MOVAI	0x04
0002f4   15b0     movra   0x30             	MOVRA	_cur_cmp_bat_lev
                                           ;	.line	146; "MC30P6280.c"	break;
0002f5   2b08     goto    0x308            	GOTO	_00128_DS_
                                           _00124_DS_
                                           ;	.line	148; "MC30P6280.c"	cur_lvd_state = LVD_LEV_3V3;
0002f6   0b08     movai   0x8              	MOVAI	0x08
0002f7   15b6     movra   0x36             	MOVRA	_cur_lvd_state
                                           ;	.line	149; "MC30P6280.c"	cur_cmp_bat_lev = BAT_LEV_3V3;
0002f8   0b03     movai   0x3              	MOVAI	0x03
0002f9   15b0     movra   0x30             	MOVRA	_cur_cmp_bat_lev
                                           ;	.line	150; "MC30P6280.c"	break;
0002fa   2b08     goto    0x308            	GOTO	_00128_DS_
                                           _00125_DS_
                                           ;	.line	152; "MC30P6280.c"	cur_lvd_state = LVD_LEV_3V2;
0002fb   0b0a     movai   0xa              	MOVAI	0x0a
0002fc   15b6     movra   0x36             	MOVRA	_cur_lvd_state
                                           ;	.line	153; "MC30P6280.c"	cur_cmp_bat_lev = BAT_LEV_3V2;
0002fd   0b02     movai   0x2              	MOVAI	0x02
0002fe   15b0     movra   0x30             	MOVRA	_cur_cmp_bat_lev
                                           ;	.line	154; "MC30P6280.c"	break;
0002ff   2b08     goto    0x308            	GOTO	_00128_DS_
                                           _00126_DS_
                                           ;	.line	156; "MC30P6280.c"	cur_lvd_state = LVD_LEV_3V0;
000300   0b0c     movai   0xc              	MOVAI	0x0c
000301   15b6     movra   0x36             	MOVRA	_cur_lvd_state
                                           ;	.line	157; "MC30P6280.c"	cur_cmp_bat_lev = BAT_LEV_3V0;
000302   0b01     movai   0x1              	MOVAI	0x01
000303   15b0     movra   0x30             	MOVRA	_cur_cmp_bat_lev
                                           ;	.line	158; "MC30P6280.c"	break;
000304   2b08     goto    0x308            	GOTO	_00128_DS_
                                           _00127_DS_
                                           ;	.line	160; "MC30P6280.c"	cur_lvd_state = LVD_LEV_2V9;
000305   0b0e     movai   0xe              	MOVAI	0x0e
000306   15b6     movra   0x36             	MOVRA	_cur_lvd_state
                                           ;	.line	161; "MC30P6280.c"	cur_cmp_bat_lev = BAT_LEV_2V9;
000307   1db0     clrr    0x30             	CLRR	_cur_cmp_bat_lev
                                           _00128_DS_
                                           ;	.line	165; "MC30P6280.c"	if (cur_lvd_state == LVD_LEV_4V2 || cur_lvd_state == LVD_LEV_4V0 ||
000308   1636     movar   0x36             	MOVAR	_cur_lvd_state
000309   0802     xorai   0x2              	XORAI	0x02
00030a   3103     jbset   0x3, 0x2         	JBSET	STATUS,2
00030b   2b0d     goto    0x30d            	GOTO	_00202_DS_
00030c   2b2a     goto    0x32a            	GOTO	_00142_DS_
                                           _00202_DS_
00030d   1636     movar   0x36             	MOVAR	_cur_lvd_state
00030e   0804     xorai   0x4              	XORAI	0x04
00030f   3103     jbset   0x3, 0x2         	JBSET	STATUS,2
000310   2b12     goto    0x312            	GOTO	_00203_DS_
000311   2b2a     goto    0x32a            	GOTO	_00142_DS_
                                           _00203_DS_
                                           ;	.line	166; "MC30P6280.c"	cur_lvd_state == LVD_LEV_3V6 || cur_lvd_state == LVD_LEV_3V3 ||
000312   1636     movar   0x36             	MOVAR	_cur_lvd_state
000313   0806     xorai   0x6              	XORAI	0x06
000314   3103     jbset   0x3, 0x2         	JBSET	STATUS,2
000315   2b17     goto    0x317            	GOTO	_00204_DS_
000316   2b2a     goto    0x32a            	GOTO	_00142_DS_
                                           _00204_DS_
000317   1636     movar   0x36             	MOVAR	_cur_lvd_state
000318   0808     xorai   0x8              	XORAI	0x08
000319   3103     jbset   0x3, 0x2         	JBSET	STATUS,2
00031a   2b1c     goto    0x31c            	GOTO	_00205_DS_
00031b   2b2a     goto    0x32a            	GOTO	_00142_DS_
                                           _00205_DS_
                                           ;	.line	167; "MC30P6280.c"	cur_lvd_state == LVD_LEV_3V2 || cur_lvd_state == LVD_LEV_3V0 ||
00031c   1636     movar   0x36             	MOVAR	_cur_lvd_state
00031d   080a     xorai   0xa              	XORAI	0x0a
00031e   3103     jbset   0x3, 0x2         	JBSET	STATUS,2
00031f   2b21     goto    0x321            	GOTO	_00206_DS_
000320   2b2a     goto    0x32a            	GOTO	_00142_DS_
                                           _00206_DS_
000321   1636     movar   0x36             	MOVAR	_cur_lvd_state
000322   080c     xorai   0xc              	XORAI	0x0c
000323   3103     jbset   0x3, 0x2         	JBSET	STATUS,2
000324   2b26     goto    0x326            	GOTO	_00207_DS_
000325   2b2a     goto    0x32a            	GOTO	_00142_DS_
                                           _00207_DS_
                                           ;	.line	168; "MC30P6280.c"	cur_lvd_state == LVD_LEV_2V9) {
000326   1636     movar   0x36             	MOVAR	_cur_lvd_state
000327   080e     xorai   0xe              	XORAI	0x0e
000328   3103     jbset   0x3, 0x2         	JBSET	STATUS,2
000329   2b4b     goto    0x34b            	GOTO	_00150_DS_
                                           _00142_DS_
                                           ;	.line	169; "MC30P6280.c"	if (LVDF) {
00032a   3288     jbset   0x8, 0x5         	JBSET	_MCRbits,5
00032b   2b3b     goto    0x33b            	GOTO	_00140_DS_
                                           ;	.line	175; "MC30P6280.c"	if (tmp_bat_lev >= cur_cmp_bat_lev) {
00032c   1630     movar   0x30             	MOVAR	_cur_cmp_bat_lev
00032d   1231     rsubar  0x31             	RSUBAR	_tmp_bat_lev
00032e   3003     jbset   0x3, 0           	JBSET	STATUS,0
00032f   2b4b     goto    0x34b            	GOTO	_00150_DS_
                                           ;;genSkipc:3291: created from rifx:013B5EFC
                                           ;	.line	177; "MC30P6280.c"	if (cur_cmp_bat_lev != BAT_LEV_2V9) {
000330   0b00     movai   0                	MOVAI	0x00
000331   1730     orar    0x30             	ORAR	_cur_cmp_bat_lev
000332   3503     jbclr   0x3, 0x2         	JBCLR	STATUS,2
000333   2b39     goto    0x339            	GOTO	_00130_DS_
                                           ;	.line	178; "MC30P6280.c"	tmp_bat_lev -= 1;
000334   1631     movar   0x31             	MOVAR	_tmp_bat_lev
000335   1597     movra   0x17             	MOVRA	r0x1022
000336   1b17     decar   0x17             	DECAR	r0x1022
000337   15b1     movra   0x31             	MOVRA	_tmp_bat_lev
000338   2b4b     goto    0x34b            	GOTO	_00150_DS_
                                           _00130_DS_
                                           ;	.line	180; "MC30P6280.c"	tmp_bat_lev = BAT_LEV_2V9;
000339   1db1     clrr    0x31             	CLRR	_tmp_bat_lev
00033a   2b4b     goto    0x34b            	GOTO	_00150_DS_
                                           _00140_DS_
                                           ;	.line	192; "MC30P6280.c"	if (tmp_bat_lev < cur_cmp_bat_lev) {
00033b   1630     movar   0x30             	MOVAR	_cur_cmp_bat_lev
00033c   1231     rsubar  0x31             	RSUBAR	_tmp_bat_lev
00033d   3403     jbclr   0x3, 0           	JBCLR	STATUS,0
00033e   2b4b     goto    0x34b            	GOTO	_00150_DS_
                                           ;;genSkipc:3291: created from rifx:013B5EFC
                                           ;	.line	194; "MC30P6280.c"	if (cur_cmp_bat_lev != BAT_LEV_4V2) {
00033f   1630     movar   0x30             	MOVAR	_cur_cmp_bat_lev
000340   0806     xorai   0x6              	XORAI	0x06
000341   3103     jbset   0x3, 0x2         	JBSET	STATUS,2
000342   2b44     goto    0x344            	GOTO	_00210_DS_
000343   2b49     goto    0x349            	GOTO	_00135_DS_
                                           _00210_DS_
                                           ;	.line	195; "MC30P6280.c"	tmp_bat_lev += 1;
000344   1631     movar   0x31             	MOVAR	_tmp_bat_lev
000345   1597     movra   0x17             	MOVRA	r0x1022
000346   1917     incar   0x17             	INCAR	r0x1022
000347   15b1     movra   0x31             	MOVRA	_tmp_bat_lev
000348   2b4b     goto    0x34b            	GOTO	_00150_DS_
                                           _00135_DS_
                                           ;	.line	197; "MC30P6280.c"	tmp_bat_lev = BAT_LEV_4V2;
000349   0b06     movai   0x6              	MOVAI	0x06
00034a   15b1     movra   0x31             	MOVRA	_tmp_bat_lev
                                           _00150_DS_
                                           ;	.line	202; "MC30P6280.c"	}
00034b   000c     return                   	RETURN	
                                           ; exit point of _lvd_scan
                                           
                                           ;***
                                           ;  pBlock Stats: dbName = C
                                           ;***
                                           ;entry:  _IO_Init	;Function start
                                           ; 2 exit points
                                           ;has an exit
                                           ;; Starting pCode block
                                           _IO_Init	;Function start
                                           ; 2 exit points
                                           ;	.line	81; "MC30P6280.c"	P1 = 0x00;    // 1:input 0:output
00034c   1d86     clrr    0x6              	CLRR	_P1
                                           ;	.line	82; "MC30P6280.c"	DDR1 = 0x00;  // 1:input 0:output
00034d   1dc6     clrr    0x46             	CLRR	_DDR1
                                           ;	.line	83; "MC30P6280.c"	PUCON = 0xff; // 0:Effective 1:invalid
00034e   0bff     movai   0xff             	MOVAI	0xff
00034f   158d     movra   0xd              	MOVRA	_PUCON
                                           ;	.line	84; "MC30P6280.c"	PDCON = 0xff; // 0:Effective 1:invalid
000350   0bff     movai   0xff             	MOVAI	0xff
000351   158b     movra   0xb              	MOVRA	_PDCON
                                           ;	.line	85; "MC30P6280.c"	ODCON = 0x00; // 0:ÍĆÍěĘäłö  1:żŞÂ©Ęäłö
000352   1d8c     clrr    0xc              	CLRR	_ODCON
                                           ;	.line	86; "MC30P6280.c"	}
000353   000c     return                   	RETURN	
                                           ; exit point of _IO_Init
                                           
                                           ;***
                                           ;  pBlock Stats: dbName = C
                                           ;***
                                           ;entry:  _C_RAM	;Function start
                                           ; 2 exit points
                                           ;has an exit
                                           ;; Starting pCode block
                                           _C_RAM	;Function start
                                           ; 2 exit points
                                           ;	.line	70; "MC30P6280.c"	__endasm;
                                           	;
000354   0b3f     movai   0x3f             	movai	0x3F;
000355   1584     movra   0x4              	movra	FSR;
000356   0b2f     movai   0x2f             	movai	47;
000357   15bf     movra   0x3f             	movra	0x3F;
000358   1b84     decr    0x4              	decr	FSR;
000359   1d80     clrr    0                	clrr	INDF;
00035a   1abf     djzr    0x3f             	djzr	0x3F;
00035b   2b58     goto    0x358            	goto	$ - 3;
00035c   1dbf     clrr    0x3f             	clrr	0x3F;
                                           	
                                           ;	.line	71; "MC30P6280.c"	}
00035d   000c     return                   	RETURN	
                                           ; exit point of _C_RAM
                                           
                                           
                                           ;	code size estimation:
                                           ;	  834+    0 =   834 instructions ( 1668 byte)
                                           
                                           	end
                                           ;--------------------------------------------------------
                                           ; File Created by SN-SDCC : SinoMCU ANSI-C Compiler
                                           ; Version 2.0.0 (Dec 11 2019) (MINGW32)
                                           ; This file was generated Wed Apr 22 10:37:19 2026
                                           ;--------------------------------------------------------
                                           ; MC30 port for the RISC core
                                           ;--------------------------------------------------------
                                           ;	.file	"timer0.c"
                                           	list	p=1K6280
                                           	radix dec
                                           	include "1K6280.inc"
                                           		LIST
                                           ;mc30p6280.inc    Standard Header File, Version 1.00 by Sinomcu
                                           		NOLIST
                                           ;--------------------------------------------------------
                                           ; external declarations
                                           ;--------------------------------------------------------
                                           	extern	_C_RAM
                                           	extern	_IO_Init
                                           	extern	_LVD_Init
                                           	extern	_Sys_Init
                                           	extern	_user_init
                                           	extern	_led_all_off
                                           	extern	_led1_on
                                           	extern	_led2_on
                                           	extern	_led3_on
                                           	extern	_led4_on
                                           	extern	_led_status_handle
                                           	extern	_led_refresh
                                           	extern	_key_scan
                                           	extern	_lvd_scan
                                           	extern	_timer1_init
                                           	extern	_INDFbits
                                           	extern	_T0CNTbits
                                           	extern	_PCLbits
                                           	extern	_STATUSbits
                                           	extern	_FSRbits
                                           	extern	_P1bits
                                           	extern	_MCRbits
                                           	extern	_P1KBCRbits
                                           	extern	_PCLATHbits
                                           	extern	_PDCONbits
                                           	extern	_ODCONbits
                                           	extern	_PUCONbits
                                           	extern	_INTEbits
                                           	extern	_INTFbits
                                           	extern	_T0CRbits
                                           	extern	_DDR1bits
                                           	extern	_TMRCRbits
                                           	extern	_T1CRbits
                                           	extern	_T1CNTbits
                                           	extern	_T1LOADbits
                                           	extern	_T1DATAbits
                                           	extern	_abuf
                                           	extern	_statusbuf
                                           	extern	_flag1
                                           	extern	_INDF
                                           	extern	_T0CNT
                                           	extern	_PCL
                                           	extern	_STATUS
                                           	extern	_FSR
                                           	extern	_P1
                                           	extern	_MCR
                                           	extern	_P1KBCR
                                           	extern	_PCLATH
                                           	extern	_PDCON
                                           	extern	_ODCON
                                           	extern	_PUCON
                                           	extern	_INTE
                                           	extern	_INTF
                                           	extern	_T0CR
                                           	extern	_DDR1
                                           	extern	_TMRCR
                                           	extern	_T1CR
                                           	extern	_T1CNT
                                           	extern	_T1LOAD
                                           	extern	_T1DATA
                                           
                                           	extern STK06
                                           	extern STK05
                                           	extern STK04
                                           	extern STK03
                                           	extern STK02
                                           	extern STK01
                                           	extern STK00
                                           ;--------------------------------------------------------
                                           ; global declarations
                                           ;--------------------------------------------------------
                                           	global	_timer0_init
                                           
                                           ;--------------------------------------------------------
                                           ; global definitions
                                           ;--------------------------------------------------------
                                           ;--------------------------------------------------------
                                           ; absolute symbol definitions
                                           ;--------------------------------------------------------
                                           ;--------------------------------------------------------
                                           ; compiler-defined variables
                                           ;--------------------------------------------------------
                                           ;--------------------------------------------------------
                                           ; initialized data
                                           ;--------------------------------------------------------
                                           
                                           ;@Allocation info for local variables in function 'timer0_init'
                                           ;@timer0_init C_RAM                     Allocated to registers ;size:2
                                           ;@timer0_init IO_Init                   Allocated to registers ;size:2
                                           ;@timer0_init LVD_Init                  Allocated to registers ;size:2
                                           ;@timer0_init Sys_Init                  Allocated to registers ;size:2
                                           ;@timer0_init user_init                 Allocated to registers ;size:2
                                           ;@timer0_init led_all_off               Allocated to registers ;size:2
                                           ;@timer0_init led1_on                   Allocated to registers ;size:2
                                           ;@timer0_init led2_on                   Allocated to registers ;size:2
                                           ;@timer0_init led3_on                   Allocated to registers ;size:2
                                           ;@timer0_init led4_on                   Allocated to registers ;size:2
                                           ;@timer0_init led_status_handle         Allocated to registers ;size:2
                                           ;@timer0_init led_refresh               Allocated to registers ;size:2
                                           ;@timer0_init key_scan                  Allocated to registers ;size:2
                                           ;@timer0_init lvd_scan                  Allocated to registers ;size:2
                                           ;@timer0_init timer1_init               Allocated to registers ;size:2
                                           ;@timer0_init INDFbits                  Allocated to registers ;size:1
                                           ;@timer0_init T0CNTbits                 Allocated to registers ;size:1
                                           ;@timer0_init PCLbits                   Allocated to registers ;size:1
                                           ;@timer0_init STATUSbits                Allocated to registers ;size:1
                                           ;@timer0_init FSRbits                   Allocated to registers ;size:1
                                           ;@timer0_init P1bits                    Allocated to registers ;size:1
                                           ;@timer0_init MCRbits                   Allocated to registers ;size:1
                                           ;@timer0_init P1KBCRbits                Allocated to registers ;size:1
                                           ;@timer0_init PCLATHbits                Allocated to registers ;size:1
                                           ;@timer0_init PDCONbits                 Allocated to registers ;size:1
                                           ;@timer0_init ODCONbits                 Allocated to registers ;size:1
                                           ;@timer0_init PUCONbits                 Allocated to registers ;size:1
                                           ;@timer0_init INTEbits                  Allocated to registers ;size:1
                                           ;@timer0_init INTFbits                  Allocated to registers ;size:1
                                           ;@timer0_init T0CRbits                  Allocated to registers ;size:1
                                           ;@timer0_init DDR1bits                  Allocated to registers ;size:1
                                           ;@timer0_init TMRCRbits                 Allocated to registers ;size:1
                                           ;@timer0_init T1CRbits                  Allocated to registers ;size:1
                                           ;@timer0_init T1CNTbits                 Allocated to registers ;size:1
                                           ;@timer0_init T1LOADbits                Allocated to registers ;size:1
                                           ;@timer0_init T1DATAbits                Allocated to registers ;size:1
                                           ;@timer0_init abuf                      Allocated to registers ;size:1
                                           ;@timer0_init statusbuf                 Allocated to registers ;size:1
                                           ;@timer0_init flag1                     Allocated to registers ;size:1
                                           ;@timer0_init INDF                      Allocated to registers ;size:1
                                           ;@timer0_init T0CNT                     Allocated to registers ;size:1
                                           ;@timer0_init PCL                       Allocated to registers ;size:1
                                           ;@timer0_init STATUS                    Allocated to registers ;size:1
                                           ;@timer0_init FSR                       Allocated to registers ;size:1
                                           ;@timer0_init P1                        Allocated to registers ;size:1
                                           ;@timer0_init MCR                       Allocated to registers ;size:1
                                           ;@timer0_init P1KBCR                    Allocated to registers ;size:1
                                           ;@timer0_init PCLATH                    Allocated to registers ;size:1
                                           ;@timer0_init PDCON                     Allocated to registers ;size:1
                                           ;@timer0_init ODCON                     Allocated to registers ;size:1
                                           ;@timer0_init PUCON                     Allocated to registers ;size:1
                                           ;@timer0_init INTE                      Allocated to registers ;size:1
                                           ;@timer0_init INTF                      Allocated to registers ;size:1
                                           ;@timer0_init T0CR                      Allocated to registers ;size:1
                                           ;@timer0_init DDR1                      Allocated to registers ;size:1
                                           ;@timer0_init TMRCR                     Allocated to registers ;size:1
                                           ;@timer0_init T1CR                      Allocated to registers ;size:1
                                           ;@timer0_init T1CNT                     Allocated to registers ;size:1
                                           ;@timer0_init T1LOAD                    Allocated to registers ;size:1
                                           ;@timer0_init T1DATA                    Allocated to registers ;size:1
                                           ;@end Allocation info for local variables in function 'timer0_init';
                                           
                                           ;--------------------------------------------------------
                                           ; overlayable items in internal ram 
                                           ;--------------------------------------------------------
                                           ;	udata_ovr
                                           ;--------------------------------------------------------
                                           ; code
                                           ;--------------------------------------------------------
                                           code_timer0	code
                                           ;***
                                           ;  pBlock Stats: dbName = C
                                           ;***
                                           ;entry:  _timer0_init	;Function start
                                           ; 2 exit points
                                           ;has an exit
                                           ;; Starting pCode block
                                           _timer0_init	;Function start
                                           ; 2 exit points
                                           ;	.line	16; "timer0.c"	T0CR = 0x05; // Ę±ÖÓÎŞCPUĘ±ÖÓŁ¬¶¨Ę±Ć÷ 64 ·ÖĆµ
0003c0   0b05     movai   0x5              	MOVAI	0x05
0003c1   15c1     movra   0x41             	MOVRA	_T0CR
                                           ;	.line	17; "timer0.c"	T0CNT = (u8)(255 - 125);
0003c2   0b82     movai   0x82             	MOVAI	0x82
0003c3   1581     movra   0x1              	MOVRA	_T0CNT
                                           ;	.line	18; "timer0.c"	T0IE = 1;
0003c4   380e     bset    0xe, 0           	BSET	_INTEbits,0
                                           ;	.line	19; "timer0.c"	}
0003c5   000c     return                   	RETURN	
                                           ; exit point of _timer0_init
                                           
                                           
                                           ;	code size estimation:
                                           ;	    6+    0 =     6 instructions (   12 byte)
                                           
                                           	end
                                           ;--------------------------------------------------------
                                           ; File Created by SN-SDCC : SinoMCU ANSI-C Compiler
                                           ; Version 2.0.0 (Dec 11 2019) (MINGW32)
                                           ; This file was generated Wed Apr 22 10:37:19 2026
                                           ;--------------------------------------------------------
                                           ; MC30 port for the RISC core
                                           ;--------------------------------------------------------
                                           ;	.file	"timer1.c"
                                           	list	p=1K6280
                                           	radix dec
                                           	include "1K6280.inc"
                                           		LIST
                                           ;mc30p6280.inc    Standard Header File, Version 1.00 by Sinomcu
                                           		NOLIST
                                           ;--------------------------------------------------------
                                           ; external declarations
                                           ;--------------------------------------------------------
                                           	extern	_C_RAM
                                           	extern	_IO_Init
                                           	extern	_LVD_Init
                                           	extern	_Sys_Init
                                           	extern	_user_init
                                           	extern	_led_all_off
                                           	extern	_led1_on
                                           	extern	_led2_on
                                           	extern	_led3_on
                                           	extern	_led4_on
                                           	extern	_led_status_handle
                                           	extern	_led_refresh
                                           	extern	_key_scan
                                           	extern	_lvd_scan
                                           	extern	_timer0_init
                                           	extern	_INDFbits
                                           	extern	_T0CNTbits
                                           	extern	_PCLbits
                                           	extern	_STATUSbits
                                           	extern	_FSRbits
                                           	extern	_P1bits
                                           	extern	_MCRbits
                                           	extern	_P1KBCRbits
                                           	extern	_PCLATHbits
                                           	extern	_PDCONbits
                                           	extern	_ODCONbits
                                           	extern	_PUCONbits
                                           	extern	_INTEbits
                                           	extern	_INTFbits
                                           	extern	_T0CRbits
                                           	extern	_DDR1bits
                                           	extern	_TMRCRbits
                                           	extern	_T1CRbits
                                           	extern	_T1CNTbits
                                           	extern	_T1LOADbits
                                           	extern	_T1DATAbits
                                           	extern	_abuf
                                           	extern	_statusbuf
                                           	extern	_flag1
                                           	extern	_INDF
                                           	extern	_T0CNT
                                           	extern	_PCL
                                           	extern	_STATUS
                                           	extern	_FSR
                                           	extern	_P1
                                           	extern	_MCR
                                           	extern	_P1KBCR
                                           	extern	_PCLATH
                                           	extern	_PDCON
                                           	extern	_ODCON
                                           	extern	_PUCON
                                           	extern	_INTE
                                           	extern	_INTF
                                           	extern	_T0CR
                                           	extern	_DDR1
                                           	extern	_TMRCR
                                           	extern	_T1CR
                                           	extern	_T1CNT
                                           	extern	_T1LOAD
                                           	extern	_T1DATA
                                           
                                           	extern STK06
                                           	extern STK05
                                           	extern STK04
                                           	extern STK03
                                           	extern STK02
                                           	extern STK01
                                           	extern STK00
                                           ;--------------------------------------------------------
                                           ; global declarations
                                           ;--------------------------------------------------------
                                           	global	_timer1_init
                                           
                                           ;--------------------------------------------------------
                                           ; global definitions
                                           ;--------------------------------------------------------
                                           ;--------------------------------------------------------
                                           ; absolute symbol definitions
                                           ;--------------------------------------------------------
                                           ;--------------------------------------------------------
                                           ; compiler-defined variables
                                           ;--------------------------------------------------------
                                           ;--------------------------------------------------------
                                           ; initialized data
                                           ;--------------------------------------------------------
                                           
                                           ;@Allocation info for local variables in function 'timer1_init'
                                           ;@timer1_init C_RAM                     Allocated to registers ;size:2
                                           ;@timer1_init IO_Init                   Allocated to registers ;size:2
                                           ;@timer1_init LVD_Init                  Allocated to registers ;size:2
                                           ;@timer1_init Sys_Init                  Allocated to registers ;size:2
                                           ;@timer1_init user_init                 Allocated to registers ;size:2
                                           ;@timer1_init led_all_off               Allocated to registers ;size:2
                                           ;@timer1_init led1_on                   Allocated to registers ;size:2
                                           ;@timer1_init led2_on                   Allocated to registers ;size:2
                                           ;@timer1_init led3_on                   Allocated to registers ;size:2
                                           ;@timer1_init led4_on                   Allocated to registers ;size:2
                                           ;@timer1_init led_status_handle         Allocated to registers ;size:2
                                           ;@timer1_init led_refresh               Allocated to registers ;size:2
                                           ;@timer1_init key_scan                  Allocated to registers ;size:2
                                           ;@timer1_init lvd_scan                  Allocated to registers ;size:2
                                           ;@timer1_init timer0_init               Allocated to registers ;size:2
                                           ;@timer1_init INDFbits                  Allocated to registers ;size:1
                                           ;@timer1_init T0CNTbits                 Allocated to registers ;size:1
                                           ;@timer1_init PCLbits                   Allocated to registers ;size:1
                                           ;@timer1_init STATUSbits                Allocated to registers ;size:1
                                           ;@timer1_init FSRbits                   Allocated to registers ;size:1
                                           ;@timer1_init P1bits                    Allocated to registers ;size:1
                                           ;@timer1_init MCRbits                   Allocated to registers ;size:1
                                           ;@timer1_init P1KBCRbits                Allocated to registers ;size:1
                                           ;@timer1_init PCLATHbits                Allocated to registers ;size:1
                                           ;@timer1_init PDCONbits                 Allocated to registers ;size:1
                                           ;@timer1_init ODCONbits                 Allocated to registers ;size:1
                                           ;@timer1_init PUCONbits                 Allocated to registers ;size:1
                                           ;@timer1_init INTEbits                  Allocated to registers ;size:1
                                           ;@timer1_init INTFbits                  Allocated to registers ;size:1
                                           ;@timer1_init T0CRbits                  Allocated to registers ;size:1
                                           ;@timer1_init DDR1bits                  Allocated to registers ;size:1
                                           ;@timer1_init TMRCRbits                 Allocated to registers ;size:1
                                           ;@timer1_init T1CRbits                  Allocated to registers ;size:1
                                           ;@timer1_init T1CNTbits                 Allocated to registers ;size:1
                                           ;@timer1_init T1LOADbits                Allocated to registers ;size:1
                                           ;@timer1_init T1DATAbits                Allocated to registers ;size:1
                                           ;@timer1_init abuf                      Allocated to registers ;size:1
                                           ;@timer1_init statusbuf                 Allocated to registers ;size:1
                                           ;@timer1_init flag1                     Allocated to registers ;size:1
                                           ;@timer1_init INDF                      Allocated to registers ;size:1
                                           ;@timer1_init T0CNT                     Allocated to registers ;size:1
                                           ;@timer1_init PCL                       Allocated to registers ;size:1
                                           ;@timer1_init STATUS                    Allocated to registers ;size:1
                                           ;@timer1_init FSR                       Allocated to registers ;size:1
                                           ;@timer1_init P1                        Allocated to registers ;size:1
                                           ;@timer1_init MCR                       Allocated to registers ;size:1
                                           ;@timer1_init P1KBCR                    Allocated to registers ;size:1
                                           ;@timer1_init PCLATH                    Allocated to registers ;size:1
                                           ;@timer1_init PDCON                     Allocated to registers ;size:1
                                           ;@timer1_init ODCON                     Allocated to registers ;size:1
                                           ;@timer1_init PUCON                     Allocated to registers ;size:1
                                           ;@timer1_init INTE                      Allocated to registers ;size:1
                                           ;@timer1_init INTF                      Allocated to registers ;size:1
                                           ;@timer1_init T0CR                      Allocated to registers ;size:1
                                           ;@timer1_init DDR1                      Allocated to registers ;size:1
                                           ;@timer1_init TMRCR                     Allocated to registers ;size:1
                                           ;@timer1_init T1CR                      Allocated to registers ;size:1
                                           ;@timer1_init T1CNT                     Allocated to registers ;size:1
                                           ;@timer1_init T1LOAD                    Allocated to registers ;size:1
                                           ;@timer1_init T1DATA                    Allocated to registers ;size:1
                                           ;@end Allocation info for local variables in function 'timer1_init';
                                           
                                           ;--------------------------------------------------------
                                           ; overlayable items in internal ram 
                                           ;--------------------------------------------------------
                                           ;	udata_ovr
                                           ;--------------------------------------------------------
                                           ; code
                                           ;--------------------------------------------------------
                                           code_timer1	code
                                           ;***
                                           ;  pBlock Stats: dbName = C
                                           ;***
                                           ;entry:  _timer1_init	;Function start
                                           ; 2 exit points
                                           ;has an exit
                                           ;; Starting pCode block
                                           _timer1_init	;Function start
                                           ; 2 exit points
                                           ;	.line	6; "timer1.c"	T1CR = 0x03; // Fcpu 8·ÖĆµ
000001   0b03     movai   0x3              	MOVAI	0x03
000002   15cc     movra   0x4c             	MOVRA	_T1CR
                                           ;	.line	8; "timer1.c"	T1LOAD = 100 - 1; // 100us
000003   0b63     movai   0x63             	MOVAI	0x63
000004   15ce     movra   0x4e             	MOVRA	_T1LOAD
                                           ;	.line	9; "timer1.c"	T1EN = 1;
000005   3bcc     bset    0x4c, 0x7        	BSET	_T1CRbits,7
                                           ;	.line	10; "timer1.c"	T1IE = 1;
000006   38cb     bset    0x4b, 0x1        	BSET	_TMRCRbits,1
                                           ;	.line	11; "timer1.c"	}
000007   000c     return                   	RETURN	
                                           ; exit point of _timer1_init
                                           
                                           
                                           ;	code size estimation:
                                           ;	    7+    0 =     7 instructions (   14 byte)
                                           
                                           	end
                                           ;--------------------------------------------------------
                                           ; File Created by SN-SDCC : SinoMCU ANSI-C Compiler
                                           ; Version 2.0.0 (Dec 11 2019) (MINGW32)
                                           ; This file was generated Wed Apr 22 10:37:19 2026
                                           ;--------------------------------------------------------
                                           ; MC30 port for the RISC core
                                           ;--------------------------------------------------------
                                           ;	.file	"MC30P6280.c"
                                           	list	p=1K6280
                                           	radix dec
                                           	include "1K6280.inc"
                                           ;--------------------------------------------------------
                                           ; external declarations
                                           ;--------------------------------------------------------
                                           	extern	_LVD_Init
                                           	extern	_timer0_init
                                           	extern	_timer1_init
                                           	extern	_INDFbits
                                           	extern	_T0CNTbits
                                           	extern	_PCLbits
                                           	extern	_STATUSbits
                                           	extern	_FSRbits
                                           	extern	_P1bits
                                           	extern	_MCRbits
                                           	extern	_P1KBCRbits
                                           	extern	_PCLATHbits
                                           	extern	_PDCONbits
                                           	extern	_ODCONbits
                                           	extern	_PUCONbits
                                           	extern	_INTEbits
                                           	extern	_INTFbits
                                           	extern	_T0CRbits
                                           	extern	_DDR1bits
                                           	extern	_TMRCRbits
                                           	extern	_T1CRbits
                                           	extern	_T1CNTbits
                                           	extern	_T1LOADbits
                                           	extern	_T1DATAbits
                                           	extern	_INDF
                                           	extern	_T0CNT
                                           	extern	_PCL
                                           	extern	_STATUS
                                           	extern	_FSR
                                           	extern	_P1
                                           	extern	_MCR
                                           	extern	_P1KBCR
                                           	extern	_PCLATH
                                           	extern	_PDCON
                                           	extern	_ODCON
                                           	extern	_PUCON
                                           	extern	_INTE
                                           	extern	_INTF
                                           	extern	_T0CR
                                           	extern	_DDR1
                                           	extern	_TMRCR
                                           	extern	_T1CR
                                           	extern	_T1CNT
                                           	extern	_T1LOAD
                                           	extern	_T1DATA
                                           ;--------------------------------------------------------
                                           ; global declarations
                                           ;--------------------------------------------------------
                                           	global	_led_refresh
                                           	global	_led_status_handle
                                           	global	_key_scan
                                           	global	_led4_on
                                           	global	_led3_on
                                           	global	_led2_on
                                           	global	_led1_on
                                           	global	_led_all_off
                                           	global	_user_init
                                           	global	_Sys_Init
                                           	global	_lvd_scan
                                           	global	_IO_Init
                                           	global	_C_RAM
                                           	global	_delay_ms
                                           	global	_pen_pwr_on
                                           	global	_pen_pwr_off
                                           	global	_main
                                           	global	_int_isr
                                           	global	_abuf
                                           	global	_statusbuf
                                           	global	_flag1
                                           	global	_flag2
                                           	global	_cur_cmp_bat_lev
                                           	global	_tmp_bat_lev
                                           	global	_bat_lev
                                           	global	_pwr_off_cnt
                                           	global	_into_low_power_cnt
                                           	global	_charge_anim_phase
                                           	global	_charge_fully_cnt
                                           	global	_led_sta_reflash_cnt
                                           	global	_cur_key_id
                                           
                                           	global STK06
                                           	global STK05
                                           	global STK04
                                           	global STK03
                                           	global STK02
                                           	global STK01
                                           	global STK00
                                           
                                           sharebank udata_ovr 0x0010
                                           STK06	res 1
                                           STK05	res 1
                                           STK04	res 1
                                           STK03	res 1
                                           STK02	res 1
                                           STK01	res 1
                                           STK00	res 1
                                           
                                           ;--------------------------------------------------------
                                           ; global definitions
                                           ;--------------------------------------------------------
                                           UD_MC30P6280_0	udata
                                           _abuf	res	1
                                           
                                           UD_MC30P6280_1	udata
                                           _statusbuf	res	1
                                           
                                           UD_MC30P6280_2	udata
                                           _flag1	res	1
                                           
                                           UD_MC30P6280_3	udata
                                           _flag2	res	1
                                           
                                           ;--------------------------------------------------------
                                           ; absolute symbol definitions
                                           ;--------------------------------------------------------
                                           ;--------------------------------------------------------
                                           ; compiler-defined variables
                                           ;--------------------------------------------------------
                                           UDL_MC30P6280_0	udata
                                           r0x1022	res	1
                                           r0x101A	res	1
                                           r0x1019	res	1
                                           r0x1018	res	1
                                           r0x1017	res	1
                                           r0x101B	res	1
                                           r0x101C	res	1
                                           r0x101D	res	1
                                           r0x101E	res	1
                                           r0x1021	res	1
                                           r0x1020	res	1
                                           r0x101F	res	1
                                           r0x1023	res	1
                                           r0x1024	res	1
                                           _led_refresh_sta_65536_102	res	1
                                           _int_isr_cnt_196608_119	res	1
                                           _int_isr_cnt_327680_125	res	1
                                           ;--------------------------------------------------------
                                           ; initialized data
                                           ;--------------------------------------------------------
                                           
                                           ID_MC30P6280_0	idata
                                           _cur_cmp_bat_lev
                                           	db	0x00
                                           
                                           
                                           ID_MC30P6280_1	idata
                                           _tmp_bat_lev
                                           	db	0x00
                                           
                                           
                                           ID_MC30P6280_2	idata
                                           _bat_lev
                                           	db	0x00
                                           
                                           
                                           ID_MC30P6280_3	idata
                                           _pwr_off_cnt
                                           	db	0x00, 0x00
                                           
                                           
                                           ID_MC30P6280_4	idata
                                           _into_low_power_cnt
                                           	db	0x00
                                           
                                           
                                           ID_MC30P6280_5	idata
                                           _charge_anim_phase
                                           	db	0x00
                                           
                                           
                                           ID_MC30P6280_6	idata
                                           _charge_fully_cnt
                                           	db	0x00, 0x00
                                           
                                           
                                           ID_MC30P6280_7	idata
                                           _led_sta_reflash_cnt
                                           	db	0x00
                                           
                                           
                                           ID_MC30P6280_8	idata
                                           _cur_lvd_state
                                           	db	0x00
                                           
                                           
                                           ID_MC30P6280_9	idata
                                           _last_key_id
                                           	db	0x00
                                           
                                           
                                           ID_MC30P6280_10	idata
                                           _press_cnt
                                           	db	0x00
                                           
                                           
                                           ID_MC30P6280_11	idata
                                           _filter_cnt
                                           	db	0x00
                                           
                                           
                                           ID_MC30P6280_12	idata
                                           _filter_key_id
                                           	db	0x00
                                           
                                           
                                           ID_MC30P6280_13	idata
                                           _click_delay_cnt
                                           	db	0x00
                                           
                                           
                                           ID_MC30P6280_14	idata
                                           _click_cnt
                                           	db	0x00
                                           
                                           
                                           ID_MC30P6280_15	idata
                                           _cur_key_id
                                           	db	0x00
                                           
                                           
                                           ;@Allocation info for local variables in function 'C_RAM'
                                           ;@C_RAM IO_Init                   Allocated to registers ;size:2
                                           ;@C_RAM LVD_Init                  Allocated to registers ;size:2
                                           ;@C_RAM Sys_Init                  Allocated to registers ;size:2
                                           ;@C_RAM user_init                 Allocated to registers ;size:2
                                           ;@C_RAM led_all_off               Allocated to registers ;size:2
                                           ;@C_RAM led1_on                   Allocated to registers ;size:2
                                           ;@C_RAM led2_on                   Allocated to registers ;size:2
                                           ;@C_RAM led3_on                   Allocated to registers ;size:2
                                           ;@C_RAM led4_on                   Allocated to registers ;size:2
                                           ;@C_RAM led_status_handle         Allocated to registers ;size:2
                                           ;@C_RAM led_refresh               Allocated to registers ;size:2
                                           ;@C_RAM key_scan                  Allocated to registers ;size:2
                                           ;@C_RAM lvd_scan                  Allocated to registers ;size:2
                                           ;@C_RAM timer0_init               Allocated to registers ;size:2
                                           ;@C_RAM timer1_init               Allocated to registers ;size:2
                                           ;@C_RAM INDFbits                  Allocated to registers ;size:1
                                           ;@C_RAM T0CNTbits                 Allocated to registers ;size:1
                                           ;@C_RAM PCLbits                   Allocated to registers ;size:1
                                           ;@C_RAM STATUSbits                Allocated to registers ;size:1
                                           ;@C_RAM FSRbits                   Allocated to registers ;size:1
                                           ;@C_RAM P1bits                    Allocated to registers ;size:1
                                           ;@C_RAM MCRbits                   Allocated to registers ;size:1
                                           ;@C_RAM P1KBCRbits                Allocated to registers ;size:1
                                           ;@C_RAM PCLATHbits                Allocated to registers ;size:1
                                           ;@C_RAM PDCONbits                 Allocated to registers ;size:1
                                           ;@C_RAM ODCONbits                 Allocated to registers ;size:1
                                           ;@C_RAM PUCONbits                 Allocated to registers ;size:1
                                           ;@C_RAM INTEbits                  Allocated to registers ;size:1
                                           ;@C_RAM INTFbits                  Allocated to registers ;size:1
                                           ;@C_RAM T0CRbits                  Allocated to registers ;size:1
                                           ;@C_RAM DDR1bits                  Allocated to registers ;size:1
                                           ;@C_RAM TMRCRbits                 Allocated to registers ;size:1
                                           ;@C_RAM T1CRbits                  Allocated to registers ;size:1
                                           ;@C_RAM T1CNTbits                 Allocated to registers ;size:1
                                           ;@C_RAM T1LOADbits                Allocated to registers ;size:1
                                           ;@C_RAM T1DATAbits                Allocated to registers ;size:1
                                           ;@C_RAM abuf                      Allocated to registers ;size:1
                                           ;@C_RAM statusbuf                 Allocated to registers ;size:1
                                           ;@C_RAM flag1                     Allocated to registers ;size:1
                                           ;@C_RAM flag2                     Allocated to registers ;size:1
                                           ;@C_RAM cur_cmp_bat_lev           Allocated to registers ;size:1
                                           ;@C_RAM tmp_bat_lev               Allocated to registers ;size:1
                                           ;@C_RAM bat_lev                   Allocated to registers ;size:1
                                           ;@C_RAM pwr_off_cnt               Allocated to registers ;size:2
                                           ;@C_RAM into_low_power_cnt        Allocated to registers ;size:1
                                           ;@C_RAM charge_anim_phase         Allocated to registers ;size:1
                                           ;@C_RAM charge_fully_cnt          Allocated to registers ;size:2
                                           ;@C_RAM led_sta_reflash_cnt       Allocated to registers ;size:1
                                           ;@C_RAM cur_lvd_state             Allocated to registers ;size:1
                                           ;@C_RAM last_key_id               Allocated to registers ;size:1
                                           ;@C_RAM press_cnt                 Allocated to registers ;size:1
                                           ;@C_RAM filter_cnt                Allocated to registers ;size:1
                                           ;@C_RAM filter_key_id             Allocated to registers ;size:1
                                           ;@C_RAM click_delay_cnt           Allocated to registers ;size:1
                                           ;@C_RAM click_cnt                 Allocated to registers ;size:1
                                           ;@C_RAM cur_key_id                Allocated to registers ;size:1
                                           ;@C_RAM INDF                      Allocated to registers ;size:1
                                           ;@C_RAM T0CNT                     Allocated to registers ;size:1
                                           ;@C_RAM PCL                       Allocated to registers ;size:1
                                           ;@C_RAM STATUS                    Allocated to registers ;size:1
                                           ;@C_RAM FSR                       Allocated to registers ;size:1
                                           ;@C_RAM P1                        Allocated to registers ;size:1
                                           ;@C_RAM MCR                       Allocated to registers ;size:1
                                           ;@C_RAM P1KBCR                    Allocated to registers ;size:1
                                           ;@C_RAM PCLATH                    Allocated to registers ;size:1
                                           ;@C_RAM PDCON                     Allocated to registers ;size:1
                                           ;@C_RAM ODCON                     Allocated to registers ;size:1
                                           ;@C_RAM PUCON                     Allocated to registers ;size:1
                                           ;@C_RAM INTE                      Allocated to registers ;size:1
                                           ;@C_RAM INTF                      Allocated to registers ;size:1
                                           ;@C_RAM T0CR                      Allocated to registers ;size:1
                                           ;@C_RAM DDR1                      Allocated to registers ;size:1
                                           ;@C_RAM TMRCR                     Allocated to registers ;size:1
                                           ;@C_RAM T1CR                      Allocated to registers ;size:1
                                           ;@C_RAM T1CNT                     Allocated to registers ;size:1
                                           ;@C_RAM T1LOAD                    Allocated to registers ;size:1
                                           ;@C_RAM T1DATA                    Allocated to registers ;size:1
                                           ;@end Allocation info for local variables in function 'C_RAM';
                                           ;@Allocation info for local variables in function 'IO_Init'
                                           ;@end Allocation info for local variables in function 'IO_Init';
                                           ;@Allocation info for local variables in function 'lvd_scan'
                                           ;@end Allocation info for local variables in function 'lvd_scan';
                                           ;@Allocation info for local variables in function 'Sys_Init'
                                           ;@end Allocation info for local variables in function 'Sys_Init';
                                           ;@Allocation info for local variables in function 'delay_ms'
                                           ;@delay_ms xms                       Allocated to registers ;size:4
                                           ;@delay_ms i                         Allocated to registers r0x101B r0x101C ;size:2
                                           ;@end Allocation info for local variables in function 'delay_ms';
                                           ;@Allocation info for local variables in function 'user_init'
                                           ;@end Allocation info for local variables in function 'user_init';
                                           ;@Allocation info for local variables in function 'pen_pwr_on'
                                           ;@end Allocation info for local variables in function 'pen_pwr_on';
                                           ;@Allocation info for local variables in function 'pen_pwr_off'
                                           ;@end Allocation info for local variables in function 'pen_pwr_off';
                                           ;@Allocation info for local variables in function 'led_all_off'
                                           ;@end Allocation info for local variables in function 'led_all_off';
                                           ;@Allocation info for local variables in function 'led1_on'
                                           ;@end Allocation info for local variables in function 'led1_on';
                                           ;@Allocation info for local variables in function 'led2_on'
                                           ;@end Allocation info for local variables in function 'led2_on';
                                           ;@Allocation info for local variables in function 'led3_on'
                                           ;@end Allocation info for local variables in function 'led3_on';
                                           ;@Allocation info for local variables in function 'led4_on'
                                           ;@end Allocation info for local variables in function 'led4_on';
                                           ;@Allocation info for local variables in function 'key_scan'
                                           ;@end Allocation info for local variables in function 'key_scan';
                                           ;@Allocation info for local variables in function 'led_status_handle'
                                           ;@end Allocation info for local variables in function 'led_status_handle';
                                           ;@Allocation info for local variables in function 'led_refresh'
                                           ;@led_refresh sta                       Allocated to registers ;size:1
                                           ;@end Allocation info for local variables in function 'led_refresh';
                                           ;@Allocation info for local variables in function 'led_refresh'
                                           ;@led_refresh sta                       Allocated to registers ;size:1
                                           ;@end Allocation info for local variables in function 'led_refresh';
                                           ;@Allocation info for local variables in function 'main'
                                           ;@end Allocation info for local variables in function 'main';
                                           ;@Allocation info for local variables in function 'int_isr'
                                           ;@int_isr cnt                       Allocated to registers ;size:1
                                           ;@int_isr cnt                       Allocated to registers ;size:1
                                           ;@end Allocation info for local variables in function 'int_isr';
                                           ;@Allocation info for local variables in function 'int_isr'
                                           ;@int_isr cnt                       Allocated to registers ;size:1
                                           ;@int_isr cnt                       Allocated to registers ;size:1
                                           ;@end Allocation info for local variables in function 'int_isr';
                                           
                                           ;--------------------------------------------------------
                                           ; overlayable items in internal ram 
                                           ;--------------------------------------------------------
                                           ;	udata_ovr
                                           ;--------------------------------------------------------
                                           ; reset vector 
                                           ;--------------------------------------------------------
                                           STARTUP	code 0x0000
                                           	goto	_main
                                           ;--------------------------------------------------------
                                           ; interrupt and initialization code
                                           ;--------------------------------------------------------
                                           c_interrupt	code	0x8
                                           __sdcc_interrupt
                                           ;***
                                           ;  pBlock Stats: dbName = I
                                           ;***
                                           ;entry:  _int_isr	;Function start
                                           ; 0 exit points
                                           ;functions called:
                                           ;   _key_scan
                                           ;   _led_status_handle
                                           ;   _pen_pwr_off
                                           ;   _led_all_off
                                           ;   _pen_pwr_off
                                           ;   _lvd_scan
                                           ;   _led_refresh
                                           ;   _key_scan
                                           ;   _led_status_handle
                                           ;   _pen_pwr_off
                                           ;   _led_all_off
                                           ;   _pen_pwr_off
                                           ;   _lvd_scan
                                           ;   _led_refresh
                                           ;2 compiler assigned registers:
                                           ;   r0x1023
                                           ;   r0x1024
                                           ;; Starting pCode block
                                           _int_isr	;Function start
                                           ; 0 exit points
                                           ;	.line	792; "MC30P6280.c"	__endasm;
                                           	;
                                           	movra	_abuf;
                                           	swapar	_STATUS;
                                           	movra	_statusbuf;
                                           	
                                           ;	.line	794; "MC30P6280.c"	if ((T0IF) && (T0IE)) {
                                           	JBSET	_INTFbits,0
                                           	GOTO	_00642_DS_
                                           	JBSET	_INTEbits,0
                                           	GOTO	_00642_DS_
                                           ;	.line	795; "MC30P6280.c"	T0IF = 0;
                                           	BCLR	_INTFbits,0
                                           ;	.line	796; "MC30P6280.c"	T0CNT = (u8)(255 - 125); // T0 ÄżÇ°1ms˛úÉúŇ»´ÎÖĐ¶Ď
                                           	MOVAI	0x82
                                           	MOVRA	_T0CNT
                                           ;	.line	800; "MC30P6280.c"	cnt++;
                                           	INCR	_int_isr_cnt_196608_119
                                           ;;unsigned compare: left < lit(0xA=10), size=1
                                           ;	.line	801; "MC30P6280.c"	if (cnt >= 10) {
                                           	MOVAI	0x0a
                                           	RSUBAR	_int_isr_cnt_196608_119
                                           	JBSET	STATUS,0
                                           	GOTO	_00633_DS_
                                           ;;genSkipc:3291: created from rifx:013B5EFC
                                           ;	.line	803; "MC30P6280.c"	cnt = 0;
                                           	CLRR	_int_isr_cnt_196608_119
                                           ;	.line	806; "MC30P6280.c"	key_scan();
                                           	CALL	_key_scan
                                           ;	.line	808; "MC30P6280.c"	led_status_handle();
                                           	CALL	_led_status_handle
                                           ;	.line	810; "MC30P6280.c"	if (flag_is_dev_working) {
                                           	JBSET	_flag1,6
                                           	GOTO	_00614_DS_
                                           ;;unsigned compare: left < lit(0x7530=30000), size=2
                                           ;	.line	812; "MC30P6280.c"	if (pwr_off_cnt < (u16)((u32)5 * 60 * 1000 / 10)) {
                                           	MOVAI	0x75
                                           	RSUBAR	(_pwr_off_cnt + 1)
                                           	JBSET	STATUS,2
                                           	GOTO	_00735_DS_
                                           	MOVAI	0x30
                                           	RSUBAR	_pwr_off_cnt
                                           _00735_DS_
                                           	JBCLR	STATUS,0
                                           	GOTO	_00615_DS_
                                           ;;genSkipc:3291: created from rifx:013B5EFC
                                           ;	.line	813; "MC30P6280.c"	pwr_off_cnt++;
                                           	INCR	_pwr_off_cnt
                                           	JBCLR	STATUS,2
                                           	INCR	(_pwr_off_cnt + 1)
                                           	GOTO	_00615_DS_
                                           _00614_DS_
                                           ;	.line	817; "MC30P6280.c"	pwr_off_cnt = 0;
                                           	CLRR	_pwr_off_cnt
                                           	CLRR	(_pwr_off_cnt + 1)
                                           _00615_DS_
                                           ;	.line	821; "MC30P6280.c"	if (flag_is_dev_working && bat_lev == BAT_LEV_2V9) {
                                           	JBSET	_flag1,6
                                           	GOTO	_00617_DS_
                                           	MOVAI	0x00
                                           	ORAR	_bat_lev
                                           	JBSET	STATUS,2
                                           	GOTO	_00617_DS_
                                           ;	.line	822; "MC30P6280.c"	pen_pwr_off();           // ¶ĎżŞ±ĘÍ·µÄą©µç
                                           	CALL	_pen_pwr_off
                                           ;	.line	823; "MC30P6280.c"	led_all_off();           // ąŘ±ŐËůÓĐÖ¸ĘľµĆ
                                           	CALL	_led_all_off
                                           ;	.line	824; "MC30P6280.c"	flag_is_dev_working = 0; // ±íĘľÉč±¸ąŘ±Ő
                                           	BCLR	_flag1,6
                                           _00617_DS_
                                           ;	.line	830; "MC30P6280.c"	if (CHARGE_PIN) {
                                           	JBSET	_P1bits,3
                                           	GOTO	_00624_DS_
                                           ;	.line	831; "MC30P6280.c"	cnt++;
                                           	INCR	_int_isr_cnt_327680_125
                                           ;;unsigned compare: left < lit(0xA=10), size=1
                                           ;	.line	832; "MC30P6280.c"	if (cnt >= 10) {
                                           	MOVAI	0x0a
                                           	RSUBAR	_int_isr_cnt_327680_125
                                           	JBSET	STATUS,0
                                           	GOTO	_00625_DS_
                                           ;;genSkipc:3291: created from rifx:013B5EFC
                                           ;	.line	833; "MC30P6280.c"	cnt = 0;
                                           	CLRR	_int_isr_cnt_327680_125
                                           ;	.line	834; "MC30P6280.c"	if (0 == flag_is_in_charging) {
                                           	JBCLR	_flag1,0
                                           	GOTO	_00625_DS_
                                           ;	.line	839; "MC30P6280.c"	tmp_bat_lev = BAT_LEV_2V9;
                                           	CLRR	_tmp_bat_lev
                                           ;	.line	840; "MC30P6280.c"	bat_lev = BAT_LEV_2V9;
                                           	CLRR	_bat_lev
                                           ;	.line	841; "MC30P6280.c"	pen_pwr_off(); // ¶ĎżŞ±ĘÍ·µÄą©µç
                                           	CALL	_pen_pwr_off
                                           ;	.line	843; "MC30P6280.c"	flag_led_1_on = 0;
                                           	BCLR	_flag1,2
                                           ;	.line	844; "MC30P6280.c"	flag_led_2_on = 0;
                                           	BCLR	_flag1,3
                                           ;	.line	845; "MC30P6280.c"	flag_led_3_on = 0;
                                           	BCLR	_flag1,4
                                           ;	.line	846; "MC30P6280.c"	flag_led_4_on = 0;
                                           	BCLR	_flag1,5
                                           ;	.line	847; "MC30P6280.c"	flag_is_dev_working = 0; // ±íĘľÉč±¸ąŘ±Ő
                                           	BCLR	_flag1,6
                                           ;	.line	849; "MC30P6280.c"	flag_is_charge_begin = 1;
                                           	BSET	_flag1,1
                                           ;	.line	850; "MC30P6280.c"	charge_anim_phase = 0;
                                           	CLRR	_charge_anim_phase
                                           ;	.line	851; "MC30P6280.c"	charge_fully_cnt = 0; // ¸Ő˝řČëłäµçŁ¬ÇĺżŐłäÂúµçµÄĽĆĘýÖµ
                                           	CLRR	_charge_fully_cnt
                                           	CLRR	(_charge_fully_cnt + 1)
                                           ;	.line	852; "MC30P6280.c"	flag_is_in_charging = 1;
                                           	BSET	_flag1,0
                                           	GOTO	_00625_DS_
                                           _00624_DS_
                                           ;	.line	859; "MC30P6280.c"	cnt = 0;
                                           	CLRR	_int_isr_cnt_327680_125
                                           ;	.line	866; "MC30P6280.c"	flag_is_in_charging = 0;
                                           	BCLR	_flag1,0
                                           _00625_DS_
                                           ;	.line	872; "MC30P6280.c"	if ((CHARGE_PIN == 0) && (flag_is_dev_working == 0)) {
                                           	JBCLR	_P1bits,3
                                           	GOTO	_00629_DS_
                                           	JBCLR	_flag1,6
                                           	GOTO	_00629_DS_
                                           ;;unsigned compare: left < lit(0xFF=255), size=1
                                           ;	.line	873; "MC30P6280.c"	if (into_low_power_cnt < 255) {
                                           	MOVAI	0xff
                                           	RSUBAR	_into_low_power_cnt
                                           	JBCLR	STATUS,0
                                           	GOTO	_00633_DS_
                                           ;;genSkipc:3291: created from rifx:013B5EFC
                                           ;	.line	874; "MC30P6280.c"	into_low_power_cnt++;
                                           	INCR	_into_low_power_cnt
                                           	GOTO	_00633_DS_
                                           _00629_DS_
                                           ;	.line	877; "MC30P6280.c"	into_low_power_cnt = 0;
                                           	CLRR	_into_low_power_cnt
                                           _00633_DS_
                                           ;	.line	882; "MC30P6280.c"	lvd_scan();
                                           	CALL	_lvd_scan
                                           ;	.line	890; "MC30P6280.c"	if (flag_is_dev_working) {
                                           	JBSET	_flag1,6
                                           	GOTO	_00639_DS_
                                           ;	.line	892; "MC30P6280.c"	if (bat_lev >= tmp_bat_lev) {
                                           	MOVAR	_tmp_bat_lev
                                           	RSUBAR	_bat_lev
                                           	JBSET	STATUS,0
                                           	GOTO	_00642_DS_
                                           ;;genSkipc:3291: created from rifx:013B5EFC
                                           ;	.line	893; "MC30P6280.c"	bat_lev = tmp_bat_lev;
                                           	MOVAR	_tmp_bat_lev
                                           	MOVRA	_bat_lev
                                           	GOTO	_00642_DS_
                                           _00639_DS_
                                           ;	.line	898; "MC30P6280.c"	if (bat_lev <= tmp_bat_lev) {
                                           	MOVAR	_bat_lev
                                           	RSUBAR	_tmp_bat_lev
                                           	JBSET	STATUS,0
                                           	GOTO	_00642_DS_
                                           ;;genSkipc:3291: created from rifx:013B5EFC
                                           ;	.line	899; "MC30P6280.c"	bat_lev = tmp_bat_lev;
                                           	MOVAR	_tmp_bat_lev
                                           	MOVRA	_bat_lev
                                           _00642_DS_
                                           ;	.line	907; "MC30P6280.c"	if ((T1IF) && (T1IE)) {
                                           	JBSET	_TMRCRbits,0
                                           	GOTO	_00650_DS_
                                           	JBSET	_TMRCRbits,1
                                           	GOTO	_00650_DS_
                                           ;	.line	908; "MC30P6280.c"	T1IF = 0;
                                           	BCLR	_TMRCRbits,0
                                           ;	.line	912; "MC30P6280.c"	led_refresh();
                                           	CALL	_led_refresh
                                           ;	.line	915; "MC30P6280.c"	if ((VIBRATION_SENSOR_PIN && last_vibration_sensor_lev == 0) ||
                                           	JBSET	_P1bits,5
                                           	GOTO	_00648_DS_
                                           	JBSET	_flag1,7
                                           	GOTO	_00644_DS_
                                           _00648_DS_
                                           ;	.line	916; "MC30P6280.c"	(VIBRATION_SENSOR_PIN == 0 && last_vibration_sensor_lev)) {
                                           	JBCLR	_P1bits,5
                                           	GOTO	_00650_DS_
                                           	JBSET	_flag1,7
                                           	GOTO	_00650_DS_
                                           _00644_DS_
                                           ;	.line	919; "MC30P6280.c"	pwr_off_cnt = 0;
                                           	CLRR	_pwr_off_cnt
                                           	CLRR	(_pwr_off_cnt + 1)
                                           ;	.line	921; "MC30P6280.c"	last_vibration_sensor_lev = VIBRATION_SENSOR_PIN;
                                           	CLRR	r0x1023
                                           	JBCLR	_P1bits,5
                                           	INCR	r0x1023
                                           	MOVAR	r0x1023
                                           	MOVRA	r0x1024
                                           	RRAR	r0x1024
                                           	JBSET	STATUS,0
                                           	BCLR	_flag1,7
                                           	JBCLR	STATUS,0
                                           	BSET	_flag1,7
                                           _00650_DS_
                                           ;	.line	932; "MC30P6280.c"	__endasm;
                                           	;
                                           	swapar	_statusbuf;
                                           	movra	_STATUS;
                                           	swapr	_abuf;
                                           	swapar	_abuf;
                                           	
                                           END_OF_INTERRUPT
                                           ;	.line	933; "MC30P6280.c"	}
                                           	RETIE	
                                           
                                           ;--------------------------------------------------------
                                           ; code
                                           ;--------------------------------------------------------
                                           code_MC30P6280	code
                                           ;***
                                           ;  pBlock Stats: dbName = M
                                           ;***
                                           ;entry:  _main	;Function start
                                           ; 2 exit points
                                           ;has an exit
                                           ;functions called:
                                           ;   _Sys_Init
                                           ;   _user_init
                                           ;   _Sys_Init
                                           ;   _user_init
                                           ;   _delay_ms
                                           ;   _Sys_Init
                                           ;   _user_init
                                           ;   _Sys_Init
                                           ;   _user_init
                                           ;   _delay_ms
                                           ;3 compiler assigned registers:
                                           ;   STK02
                                           ;   STK01
                                           ;   STK00
                                           ;; Starting pCode block
                                           _main	;Function start
                                           ; 2 exit points
                                           ;	.line	672; "MC30P6280.c"	Sys_Init();
                                           	CALL	_Sys_Init
                                           ;	.line	673; "MC30P6280.c"	user_init();
                                           	CALL	_user_init
                                           ;	.line	675; "MC30P6280.c"	into_low_power_cnt = (u8)((u16)2000 / 10); // Č·±ŁŇ»ÉĎµçľÍ˝řČëµÍą¦şÄ
                                           	MOVAI	0xc8
                                           	MOVRA	_into_low_power_cnt
                                           _00578_DS_
                                           ;	.line	685; "MC30P6280.c"	if ((flag_is_dev_working && pwr_off_cnt >= (u16)((u32)5 * 60 * 1000 / 10)) ||
                                           	JBSET	_flag1,6
                                           	GOTO	_00576_DS_
                                           ;;unsigned compare: left < lit(0x7530=30000), size=2
                                           	MOVAI	0x75
                                           	RSUBAR	(_pwr_off_cnt + 1)
                                           	JBSET	STATUS,2
                                           	GOTO	_00606_DS_
                                           	MOVAI	0x30
                                           	RSUBAR	_pwr_off_cnt
                                           _00606_DS_
                                           	JBCLR	STATUS,0
                                           	GOTO	_00566_DS_
                                           ;;genSkipc:3291: created from rifx:013B5EFC
                                           ;;unsigned compare: left < lit(0xC8=200), size=1
                                           _00576_DS_
                                           ;	.line	686; "MC30P6280.c"	into_low_power_cnt >= (u8)((u16)2000 / 10)) {
                                           	MOVAI	0xc8
                                           	RSUBAR	_into_low_power_cnt
                                           	JBSET	STATUS,0
                                           	GOTO	_00578_DS_
                                           ;;genSkipc:3291: created from rifx:013B5EFC
                                           _00566_DS_
                                           ;	.line	701; "MC30P6280.c"	GIE = 0; // ąŘ±Ő×ÜÖĐ¶Ď
                                           	BCLR	_INTEbits,7
                                           ;	.line	707; "MC30P6280.c"	T0IE = 0;  // ĆÁ±Î timer0 ÖĐ¶Ď
                                           	BCLR	_INTEbits,0
                                           ;	.line	708; "MC30P6280.c"	T1IE = 0;  // ĆÁ±Î timer1 ÖĐ¶Ď
                                           	BCLR	_TMRCRbits,1
                                           ;	.line	709; "MC30P6280.c"	T1EN = 0;  // ˛»ĘąÄÜ¶¨Ę±Ć÷
                                           	BCLR	_T1CRbits,7
                                           ;	.line	710; "MC30P6280.c"	LVDEN = 0; // ąŘ±Ő lvd
                                           	BCLR	_MCRbits,0
                                           ;	.line	713; "MC30P6280.c"	PUCON = 0xFF; // 0:Effective 1:invalid
                                           	MOVAI	0xff
                                           	MOVRA	_PUCON
                                           ;	.line	714; "MC30P6280.c"	PDCON = 0xFF; // 0:Effective 1:invalid
                                           	MOVAI	0xff
                                           	MOVRA	_PDCON
                                           ;	.line	715; "MC30P6280.c"	DDR1 = 0xFF;  // 1:input 0:output
                                           	MOVAI	0xff
                                           	MOVRA	_DDR1
                                           ;	.line	717; "MC30P6280.c"	PUCON &= ~(0x01 << 0);             // ÉĎŔ­ 20K Ł¬ P10(°´ĽüĽě˛â˝Ĺ)
                                           	BCLR	_PUCON,0
                                           ;	.line	718; "MC30P6280.c"	PUCON &= ~(0x01 << 1 | 0x01 << 2); // LEDżŘÖĆ A¶ËşÍB¶ËŁ¬´ňżŞÉĎŔ­
                                           	MOVAI	0xf9
                                           	ANDRA	_PUCON
                                           ;	.line	724; "MC30P6280.c"	KBIF = 0; // ÇĺłýÖĐ¶Ď±ęÖľ
                                           	BCLR	_INTFbits,1
                                           ;	.line	725; "MC30P6280.c"	KBIE = 1; // ĘąÄÜĽüĹĚÖĐ¶Ď
                                           	BSET	_INTEbits,1
                                           ;	.line	729; "MC30P6280.c"	P1KBCR |= (0x01 << 0) | (0x01 << 3);
                                           	MOVAI	0x09
                                           	ORRA	_P1KBCR
                                           ;	.line	737; "MC30P6280.c"	Stop();
                                           	stop	
                                           ;	.line	738; "MC30P6280.c"	Nop();
                                           	nop	
                                           ;	.line	739; "MC30P6280.c"	Nop();
                                           	nop	
                                           ;	.line	742; "MC30P6280.c"	P1KBCR = 0; // ąŘ±ŐËůÓĐĽüĹĚÖĐ¶Ď
                                           	CLRR	_P1KBCR
                                           ;	.line	743; "MC30P6280.c"	KBIE = 0;   // ąŘ±ŐĽüĹĚÖĐ¶Ď
                                           	BCLR	_INTEbits,1
                                           ;	.line	744; "MC30P6280.c"	KBIF = 0;   // Çĺłý ĽüĹĚÖĐ¶Ď ±ęÖľ
                                           	BCLR	_INTFbits,1
                                           ;	.line	751; "MC30P6280.c"	Sys_Init();
                                           	CALL	_Sys_Init
                                           ;	.line	752; "MC30P6280.c"	user_init();
                                           	CALL	_user_init
                                           ;	.line	754; "MC30P6280.c"	if (CHARGE_PIN == 0) {
                                           	JBCLR	_P1bits,3
                                           	GOTO	_00568_DS_
                                           ;	.line	756; "MC30P6280.c"	tmp_bat_lev = BAT_LEV_4V2; // »˝ĐŃşóŁ¬¸řŇ»¸öÄ¬ČĎÖµ
                                           	MOVAI	0x06
                                           	MOVRA	_tmp_bat_lev
                                           ;	.line	757; "MC30P6280.c"	bat_lev = BAT_LEV_4V2;
                                           	MOVAI	0x06
                                           	MOVRA	_bat_lev
                                           	GOTO	_00569_DS_
                                           _00568_DS_
                                           ;	.line	760; "MC30P6280.c"	tmp_bat_lev = BAT_LEV_2V9;
                                           	CLRR	_tmp_bat_lev
                                           ;	.line	761; "MC30P6280.c"	bat_lev = BAT_LEV_2V9;
                                           	CLRR	_bat_lev
                                           _00569_DS_
                                           ;	.line	768; "MC30P6280.c"	delay_ms(100);
                                           	MOVAI	0x64
                                           	MOVRA	STK02
                                           	MOVAI	0x00
                                           	MOVRA	STK01
                                           	MOVAI	0x00
                                           	MOVRA	STK00
                                           	MOVAI	0x00
                                           	CALL	_delay_ms
                                           ;	.line	769; "MC30P6280.c"	flag_is_led_show_enable = 1; // Č·±ŁµçłŘµçÁż¸üĐÂşóŁ¬ÔŮĘąÄÜledĎÔĘľ
                                           	BSET	_flag2,0
                                           ;	.line	772; "MC30P6280.c"	if (CHARGE_PIN == 0 && bat_lev < BAT_LEV_3V0) {
                                           	JBCLR	_P1bits,3
                                           	GOTO	_00578_DS_
                                           ;;unsigned compare: left < lit(0x1=1), size=1
                                           	MOVAI	0x01
                                           	RSUBAR	_bat_lev
                                           	JBSET	STATUS,0
                                           	GOTO	_00566_DS_
                                           ;;genSkipc:3291: created from rifx:013B5EFC
                                           ;	.line	773; "MC30P6280.c"	goto label_low_power_in;
                                           	GOTO	_00578_DS_
                                           ;	.line	778; "MC30P6280.c"	}
                                           	RETURN	
                                           ; exit point of _main
                                           
                                           ;***
                                           ;  pBlock Stats: dbName = C
                                           ;***
                                           ;entry:  _led_refresh	;Function start
                                           ; 2 exit points
                                           ;has an exit
                                           ;functions called:
                                           ;   _led_all_off
                                           ;   _led1_on
                                           ;   _led2_on
                                           ;   _led3_on
                                           ;   _led4_on
                                           ;   _led_all_off
                                           ;   _led1_on
                                           ;   _led2_on
                                           ;   _led3_on
                                           ;   _led4_on
                                           ;1 compiler assigned register :
                                           ;   r0x101F
                                           ;; Starting pCode block
                                           _led_refresh	;Function start
                                           ; 2 exit points
                                           ;	.line	633; "MC30P6280.c"	if (0 == flag_is_led_show_enable) {
                                           	JBCLR	_flag2,0
                                           	GOTO	_00519_DS_
                                           ;	.line	634; "MC30P6280.c"	return;
                                           	GOTO	_00534_DS_
                                           _00519_DS_
                                           ;	.line	637; "MC30P6280.c"	led_all_off();
                                           	CALL	_led_all_off
                                           ;	.line	639; "MC30P6280.c"	switch (sta) {
                                           	MOVAR	_led_refresh_sta_65536_102
                                           	MOVRA	r0x101F
                                           ;;swapping arguments (AOP_TYPEs 1/2)
                                           ;;unsigned compare: left >= lit(0x4=4), size=1
                                           	MOVAI	0x04
                                           	RSUBAR	r0x101F
                                           	JBCLR	STATUS,0
                                           	GOTO	_00534_DS_
                                           ;;genSkipc:3291: created from rifx:013B5EFC
                                           	MOVAI	HIGH(_00561_DS_)
                                           	MOVRA	PCLATH
                                           	MOVAI	_00561_DS_
                                           	ADDAR	r0x101F
                                           	JBCLR	STATUS,0
                                           	INCR	PCLATH
                                           	MOVRA	PCL
                                           _00561_DS_
                                           	GOTO	_00520_DS_
                                           	GOTO	_00523_DS_
                                           	GOTO	_00526_DS_
                                           	GOTO	_00529_DS_
                                           _00520_DS_
                                           ;	.line	641; "MC30P6280.c"	if (flag_led_1_on) {
                                           	JBSET	_flag1,2
                                           	GOTO	_00522_DS_
                                           ;	.line	642; "MC30P6280.c"	led1_on();
                                           	CALL	_led1_on
                                           _00522_DS_
                                           ;	.line	644; "MC30P6280.c"	sta = 1;
                                           	MOVAI	0x01
                                           	MOVRA	_led_refresh_sta_65536_102
                                           ;	.line	645; "MC30P6280.c"	break;
                                           	GOTO	_00534_DS_
                                           _00523_DS_
                                           ;	.line	647; "MC30P6280.c"	if (flag_led_2_on) {
                                           	JBSET	_flag1,3
                                           	GOTO	_00525_DS_
                                           ;	.line	648; "MC30P6280.c"	led2_on();
                                           	CALL	_led2_on
                                           _00525_DS_
                                           ;	.line	650; "MC30P6280.c"	sta = 2;
                                           	MOVAI	0x02
                                           	MOVRA	_led_refresh_sta_65536_102
                                           ;	.line	651; "MC30P6280.c"	break;
                                           	GOTO	_00534_DS_
                                           _00526_DS_
                                           ;	.line	653; "MC30P6280.c"	if (flag_led_3_on) {
                                           	JBSET	_flag1,4
                                           	GOTO	_00528_DS_
                                           ;	.line	654; "MC30P6280.c"	led3_on();
                                           	CALL	_led3_on
                                           _00528_DS_
                                           ;	.line	656; "MC30P6280.c"	sta = 3;
                                           	MOVAI	0x03
                                           	MOVRA	_led_refresh_sta_65536_102
                                           ;	.line	657; "MC30P6280.c"	break;
                                           	GOTO	_00534_DS_
                                           _00529_DS_
                                           ;	.line	659; "MC30P6280.c"	if (flag_led_4_on) {
                                           	JBSET	_flag1,5
                                           	GOTO	_00531_DS_
                                           ;	.line	660; "MC30P6280.c"	led4_on();
                                           	CALL	_led4_on
                                           _00531_DS_
                                           ;	.line	662; "MC30P6280.c"	sta = 0;
                                           	CLRR	_led_refresh_sta_65536_102
                                           _00534_DS_
                                           ;	.line	668; "MC30P6280.c"	}
                                           	RETURN	
                                           ; exit point of _led_refresh
                                           
                                           ;***
                                           ;  pBlock Stats: dbName = C
                                           ;***
                                           ;entry:  _led_status_handle	;Function start
                                           ; 2 exit points
                                           ;has an exit
                                           ;1 compiler assigned register :
                                           ;   r0x1020
                                           ;; Starting pCode block
                                           _led_status_handle	;Function start
                                           ; 2 exit points
                                           ;	.line	475; "MC30P6280.c"	led_sta_reflash_cnt++;
                                           	INCR	_led_sta_reflash_cnt
                                           ;;unsigned compare: left < lit(0x32=50), size=1
                                           ;	.line	476; "MC30P6280.c"	if (led_sta_reflash_cnt >= (u8)(500 / 10)) {
                                           	MOVAI	0x32
                                           	RSUBAR	_led_sta_reflash_cnt
                                           	JBSET	STATUS,0
                                           	GOTO	_00416_DS_
                                           ;;genSkipc:3291: created from rifx:013B5EFC
                                           ;	.line	477; "MC30P6280.c"	led_sta_reflash_cnt = 0;
                                           	CLRR	_led_sta_reflash_cnt
                                           ;	.line	478; "MC30P6280.c"	if (flag_is_in_charging) {
                                           	JBSET	_flag1,0
                                           	GOTO	_00412_DS_
                                           ;	.line	482; "MC30P6280.c"	if (flag_is_charge_begin) {
                                           	JBSET	_flag1,1
                                           	GOTO	_00394_DS_
                                           ;;unsigned compare: left < lit(0x3=3), size=1
                                           ;	.line	483; "MC30P6280.c"	if (bat_lev < BAT_LEV_3V3) {
                                           	MOVAI	0x03
                                           	RSUBAR	_bat_lev
                                           	JBCLR	STATUS,0
                                           	GOTO	_00375_DS_
                                           ;;genSkipc:3291: created from rifx:013B5EFC
                                           ;	.line	488; "MC30P6280.c"	flag_is_charge_begin = 0;
                                           	BCLR	_flag1,1
                                           	GOTO	_00416_DS_
                                           ;;unsigned compare: left < lit(0x3=3), size=1
                                           _00375_DS_
                                           ;	.line	489; "MC30P6280.c"	} else if (bat_lev >= BAT_LEV_3V3 && charge_anim_phase == 0) {
                                           	MOVAI	0x03
                                           	RSUBAR	_bat_lev
                                           	JBSET	STATUS,0
                                           	GOTO	_00371_DS_
                                           ;;genSkipc:3291: created from rifx:013B5EFC
                                           	MOVAI	0x00
                                           	ORAR	_charge_anim_phase
                                           	JBSET	STATUS,2
                                           	GOTO	_00371_DS_
                                           ;	.line	494; "MC30P6280.c"	flag_led_1_on = 1;
                                           	BSET	_flag1,2
                                           ;	.line	495; "MC30P6280.c"	charge_anim_phase = 1;
                                           	MOVAI	0x01
                                           	MOVRA	_charge_anim_phase
                                           	GOTO	_00416_DS_
                                           ;;unsigned compare: left < lit(0x4=4), size=1
                                           _00371_DS_
                                           ;	.line	496; "MC30P6280.c"	} else if (bat_lev >= BAT_LEV_3V6 && charge_anim_phase == 1) {
                                           	MOVAI	0x04
                                           	RSUBAR	_bat_lev
                                           	JBSET	STATUS,0
                                           	GOTO	_00367_DS_
                                           ;;genSkipc:3291: created from rifx:013B5EFC
                                           	MOVAR	_charge_anim_phase
                                           	XORAI	0x01
                                           	JBSET	STATUS,2
                                           	GOTO	_00367_DS_
                                           ;	.line	501; "MC30P6280.c"	flag_led_2_on = 1;
                                           	BSET	_flag1,3
                                           ;	.line	502; "MC30P6280.c"	charge_anim_phase = 2;
                                           	MOVAI	0x02
                                           	MOVRA	_charge_anim_phase
                                           	GOTO	_00416_DS_
                                           ;;unsigned compare: left < lit(0x5=5), size=1
                                           _00367_DS_
                                           ;	.line	503; "MC30P6280.c"	} else if (bat_lev >= BAT_LEV_4V0 && charge_anim_phase == 2) {
                                           	MOVAI	0x05
                                           	RSUBAR	_bat_lev
                                           	JBSET	STATUS,0
                                           	GOTO	_00363_DS_
                                           ;;genSkipc:3291: created from rifx:013B5EFC
                                           	MOVAR	_charge_anim_phase
                                           	XORAI	0x02
                                           	JBSET	STATUS,2
                                           	GOTO	_00363_DS_
                                           ;	.line	508; "MC30P6280.c"	flag_led_3_on = 1;
                                           	BSET	_flag1,4
                                           ;	.line	509; "MC30P6280.c"	charge_anim_phase = 3;
                                           	MOVAI	0x03
                                           	MOVRA	_charge_anim_phase
                                           	GOTO	_00416_DS_
                                           ;;unsigned compare: left < lit(0x6=6), size=1
                                           _00363_DS_
                                           ;	.line	510; "MC30P6280.c"	} else if (bat_lev >= BAT_LEV_4V2 && charge_anim_phase == 3) {
                                           	MOVAI	0x06
                                           	RSUBAR	_bat_lev
                                           	JBSET	STATUS,0
                                           	GOTO	_00359_DS_
                                           ;;genSkipc:3291: created from rifx:013B5EFC
                                           	MOVAR	_charge_anim_phase
                                           	XORAI	0x03
                                           	JBSET	STATUS,2
                                           	GOTO	_00359_DS_
                                           ;	.line	512; "MC30P6280.c"	flag_led_4_on = 1;
                                           	BSET	_flag1,5
                                           ;	.line	513; "MC30P6280.c"	charge_anim_phase = 4;
                                           	MOVAI	0x04
                                           	MOVRA	_charge_anim_phase
                                           	GOTO	_00416_DS_
                                           _00359_DS_
                                           ;	.line	515; "MC30P6280.c"	flag_is_charge_begin = 0; // ÍËłö¸ŐżŞĘĽłäµçµÄ¶Ż»­
                                           	BCLR	_flag1,1
                                           ;	.line	520; "MC30P6280.c"	led_sta_reflash_cnt = (u8)(500 / 10);
                                           	MOVAI	0x32
                                           	MOVRA	_led_sta_reflash_cnt
                                           	GOTO	_00416_DS_
                                           _00394_DS_
                                           ;	.line	524; "MC30P6280.c"	switch (bat_lev) {
                                           	MOVAR	_bat_lev
                                           	MOVRA	r0x1020
                                           ;;swapping arguments (AOP_TYPEs 1/2)
                                           ;;unsigned compare: left >= lit(0x7=7), size=1
                                           	MOVAI	0x07
                                           	RSUBAR	r0x1020
                                           	JBCLR	STATUS,0
                                           	GOTO	_00384_DS_
                                           ;;genSkipc:3291: created from rifx:013B5EFC
                                           	MOVAI	HIGH(_00513_DS_)
                                           	MOVRA	PCLATH
                                           	MOVAI	_00513_DS_
                                           	ADDAR	r0x1020
                                           	JBCLR	STATUS,0
                                           	INCR	PCLATH
                                           	MOVRA	PCL
                                           _00513_DS_
                                           	GOTO	_00383_DS_
                                           	GOTO	_00383_DS_
                                           	GOTO	_00383_DS_
                                           	GOTO	_00380_DS_
                                           	GOTO	_00379_DS_
                                           	GOTO	_00378_DS_
                                           	GOTO	_00378_DS_
                                           _00378_DS_
                                           ;	.line	527; "MC30P6280.c"	flag_led_4_on = ~flag_led_4_on;
                                           	CLRR	r0x1020
                                           	JBCLR	_flag1,5
                                           	INCR	r0x1020
                                           	COMAR	r0x1020
                                           	MOVRA	r0x1020
                                           	RRAR	r0x1020
                                           	JBSET	STATUS,0
                                           	BCLR	_flag1,5
                                           	JBCLR	STATUS,0
                                           	BSET	_flag1,5
                                           ;	.line	528; "MC30P6280.c"	break;
                                           	GOTO	_00384_DS_
                                           _00379_DS_
                                           ;	.line	530; "MC30P6280.c"	flag_led_3_on = ~flag_led_3_on;
                                           	CLRR	r0x1020
                                           	JBCLR	_flag1,4
                                           	INCR	r0x1020
                                           	COMAR	r0x1020
                                           	MOVRA	r0x1020
                                           	RRAR	r0x1020
                                           	JBSET	STATUS,0
                                           	BCLR	_flag1,4
                                           	JBCLR	STATUS,0
                                           	BSET	_flag1,4
                                           ;	.line	531; "MC30P6280.c"	break;
                                           	GOTO	_00384_DS_
                                           _00380_DS_
                                           ;	.line	533; "MC30P6280.c"	flag_led_2_on = ~flag_led_2_on;
                                           	CLRR	r0x1020
                                           	JBCLR	_flag1,3
                                           	INCR	r0x1020
                                           	COMAR	r0x1020
                                           	MOVRA	r0x1020
                                           	RRAR	r0x1020
                                           	JBSET	STATUS,0
                                           	BCLR	_flag1,3
                                           	JBCLR	STATUS,0
                                           	BSET	_flag1,3
                                           ;	.line	534; "MC30P6280.c"	break;
                                           	GOTO	_00384_DS_
                                           _00383_DS_
                                           ;	.line	539; "MC30P6280.c"	flag_led_1_on = ~flag_led_1_on;
                                           	CLRR	r0x1020
                                           	JBCLR	_flag1,2
                                           	INCR	r0x1020
                                           	COMAR	r0x1020
                                           	MOVRA	r0x1020
                                           	RRAR	r0x1020
                                           	JBSET	STATUS,0
                                           	BCLR	_flag1,2
                                           	JBCLR	STATUS,0
                                           	BSET	_flag1,2
                                           ;;unsigned compare: left < lit(0x3=3), size=1
                                           _00384_DS_
                                           ;	.line	543; "MC30P6280.c"	if (bat_lev >= BAT_LEV_3V3) {
                                           	MOVAI	0x03
                                           	RSUBAR	_bat_lev
                                           	JBSET	STATUS,0
                                           	GOTO	_00386_DS_
                                           ;;genSkipc:3291: created from rifx:013B5EFC
                                           ;	.line	544; "MC30P6280.c"	flag_led_1_on = 1; // Ö¸ĘľµĆłŁÁÁŁ¬˛»ÉÁË¸
                                           	BSET	_flag1,2
                                           ;;unsigned compare: left < lit(0x4=4), size=1
                                           _00386_DS_
                                           ;	.line	547; "MC30P6280.c"	if (bat_lev >= BAT_LEV_3V6) {
                                           	MOVAI	0x04
                                           	RSUBAR	_bat_lev
                                           	JBSET	STATUS,0
                                           	GOTO	_00388_DS_
                                           ;;genSkipc:3291: created from rifx:013B5EFC
                                           ;	.line	548; "MC30P6280.c"	flag_led_2_on = 1; // Ö¸ĘľµĆłŁÁÁŁ¬˛»ÉÁË¸
                                           	BSET	_flag1,3
                                           ;;unsigned compare: left < lit(0x5=5), size=1
                                           _00388_DS_
                                           ;	.line	551; "MC30P6280.c"	if (bat_lev >= BAT_LEV_4V0) {
                                           	MOVAI	0x05
                                           	RSUBAR	_bat_lev
                                           	JBSET	STATUS,0
                                           	GOTO	_00390_DS_
                                           ;;genSkipc:3291: created from rifx:013B5EFC
                                           ;	.line	552; "MC30P6280.c"	flag_led_3_on = 1; // Ö¸ĘľµĆłŁÁÁŁ¬˛»ÉÁË¸
                                           	BSET	_flag1,4
                                           ;;unsigned compare: left < lit(0x6=6), size=1
                                           _00390_DS_
                                           ;	.line	555; "MC30P6280.c"	if (bat_lev >= BAT_LEV_4V2) {
                                           	MOVAI	0x06
                                           	RSUBAR	_bat_lev
                                           	JBSET	STATUS,0
                                           	GOTO	_00416_DS_
                                           ;;genSkipc:3291: created from rifx:013B5EFC
                                           ;	.line	558; "MC30P6280.c"	flag_led_4_on = 1; // Ö¸ĘľµĆłŁÁÁŁ¬˛»ÉÁË¸
                                           	BSET	_flag1,5
                                           	GOTO	_00416_DS_
                                           _00412_DS_
                                           ;	.line	580; "MC30P6280.c"	} else if (flag_is_dev_working) {
                                           	JBSET	_flag1,6
                                           	GOTO	_00409_DS_
                                           ;;unsigned compare: left < lit(0x5=5), size=1
                                           ;	.line	589; "MC30P6280.c"	if (bat_lev >= BAT_LEV_4V0) {
                                           	MOVAI	0x05
                                           	RSUBAR	_bat_lev
                                           	JBSET	STATUS,0
                                           	GOTO	_00406_DS_
                                           ;;genSkipc:3291: created from rifx:013B5EFC
                                           ;	.line	590; "MC30P6280.c"	flag_led_4_on = 1;
                                           	BSET	_flag1,5
                                           ;	.line	591; "MC30P6280.c"	flag_led_3_on = 1;
                                           	BSET	_flag1,4
                                           ;	.line	592; "MC30P6280.c"	flag_led_2_on = 1;
                                           	BSET	_flag1,3
                                           ;	.line	593; "MC30P6280.c"	flag_led_1_on = 1;
                                           	BSET	_flag1,2
                                           	GOTO	_00416_DS_
                                           ;;unsigned compare: left < lit(0x4=4), size=1
                                           _00406_DS_
                                           ;	.line	594; "MC30P6280.c"	} else if (bat_lev >= BAT_LEV_3V6) {
                                           	MOVAI	0x04
                                           	RSUBAR	_bat_lev
                                           	JBSET	STATUS,0
                                           	GOTO	_00403_DS_
                                           ;;genSkipc:3291: created from rifx:013B5EFC
                                           ;	.line	595; "MC30P6280.c"	flag_led_4_on = 0;
                                           	BCLR	_flag1,5
                                           ;	.line	596; "MC30P6280.c"	flag_led_3_on = 1;
                                           	BSET	_flag1,4
                                           ;	.line	597; "MC30P6280.c"	flag_led_2_on = 1;
                                           	BSET	_flag1,3
                                           ;	.line	598; "MC30P6280.c"	flag_led_1_on = 1;
                                           	BSET	_flag1,2
                                           	GOTO	_00416_DS_
                                           ;;unsigned compare: left < lit(0x3=3), size=1
                                           _00403_DS_
                                           ;	.line	599; "MC30P6280.c"	} else if (bat_lev >= BAT_LEV_3V3) {
                                           	MOVAI	0x03
                                           	RSUBAR	_bat_lev
                                           	JBSET	STATUS,0
                                           	GOTO	_00400_DS_
                                           ;;genSkipc:3291: created from rifx:013B5EFC
                                           ;	.line	600; "MC30P6280.c"	flag_led_4_on = 0;
                                           	BCLR	_flag1,5
                                           ;	.line	601; "MC30P6280.c"	flag_led_3_on = 0;
                                           	BCLR	_flag1,4
                                           ;	.line	602; "MC30P6280.c"	flag_led_2_on = 1;
                                           	BSET	_flag1,3
                                           ;	.line	603; "MC30P6280.c"	flag_led_1_on = 1;
                                           	BSET	_flag1,2
                                           	GOTO	_00416_DS_
                                           ;;unsigned compare: left < lit(0x2=2), size=1
                                           _00400_DS_
                                           ;	.line	604; "MC30P6280.c"	} else if (bat_lev >= BAT_LEV_3V2) {
                                           	MOVAI	0x02
                                           	RSUBAR	_bat_lev
                                           	JBSET	STATUS,0
                                           	GOTO	_00397_DS_
                                           ;;genSkipc:3291: created from rifx:013B5EFC
                                           ;	.line	605; "MC30P6280.c"	flag_led_4_on = 0;
                                           	BCLR	_flag1,5
                                           ;	.line	606; "MC30P6280.c"	flag_led_3_on = 0;
                                           	BCLR	_flag1,4
                                           ;	.line	607; "MC30P6280.c"	flag_led_2_on = 0;
                                           	BCLR	_flag1,3
                                           ;	.line	608; "MC30P6280.c"	flag_led_1_on = 1;
                                           	BSET	_flag1,2
                                           	GOTO	_00416_DS_
                                           _00397_DS_
                                           ;	.line	611; "MC30P6280.c"	flag_led_4_on = 0;
                                           	BCLR	_flag1,5
                                           ;	.line	612; "MC30P6280.c"	flag_led_3_on = 0;
                                           	BCLR	_flag1,4
                                           ;	.line	613; "MC30P6280.c"	flag_led_2_on = 0;
                                           	BCLR	_flag1,3
                                           ;	.line	615; "MC30P6280.c"	flag_led_1_on = ~flag_led_1_on;
                                           	CLRR	r0x1020
                                           	JBCLR	_flag1,2
                                           	INCR	r0x1020
                                           	COMAR	r0x1020
                                           	MOVRA	r0x1020
                                           	RRAR	r0x1020
                                           	JBSET	STATUS,0
                                           	BCLR	_flag1,2
                                           	JBCLR	STATUS,0
                                           	BSET	_flag1,2
                                           	GOTO	_00416_DS_
                                           _00409_DS_
                                           ;	.line	619; "MC30P6280.c"	flag_led_1_on = 0;
                                           	BCLR	_flag1,2
                                           ;	.line	620; "MC30P6280.c"	flag_led_2_on = 0;
                                           	BCLR	_flag1,3
                                           ;	.line	621; "MC30P6280.c"	flag_led_3_on = 0;
                                           	BCLR	_flag1,4
                                           ;	.line	622; "MC30P6280.c"	flag_led_4_on = 0;
                                           	BCLR	_flag1,5
                                           _00416_DS_
                                           ;	.line	625; "MC30P6280.c"	}
                                           	RETURN	
                                           ; exit point of _led_status_handle
                                           
                                           ;***
                                           ;  pBlock Stats: dbName = C
                                           ;***
                                           ;entry:  _key_scan	;Function start
                                           ; 2 exit points
                                           ;has an exit
                                           ;functions called:
                                           ;   _led_all_off
                                           ;   _pen_pwr_on
                                           ;   _pen_pwr_off
                                           ;   _led_all_off
                                           ;   _pen_pwr_on
                                           ;   _pen_pwr_off
                                           ;1 compiler assigned register :
                                           ;   r0x1021
                                           ;; Starting pCode block
                                           _key_scan	;Function start
                                           ; 2 exit points
                                           ;	.line	354; "MC30P6280.c"	if (flag_is_in_charging) {
                                           	JBSET	_flag1,0
                                           	GOTO	_00263_DS_
                                           ;	.line	356; "MC30P6280.c"	last_key_id = 0;
                                           	CLRR	_last_key_id
                                           ;	.line	357; "MC30P6280.c"	press_cnt = 0;
                                           	CLRR	_press_cnt
                                           ;	.line	358; "MC30P6280.c"	filter_cnt = 0;
                                           	CLRR	_filter_cnt
                                           ;	.line	359; "MC30P6280.c"	filter_key_id = 0;
                                           	CLRR	_filter_key_id
                                           ;	.line	360; "MC30P6280.c"	click_delay_cnt = 0;
                                           	CLRR	_click_delay_cnt
                                           ;	.line	361; "MC30P6280.c"	click_cnt = 0;
                                           	CLRR	_click_cnt
                                           ;	.line	362; "MC30P6280.c"	cur_key_id = 0;
                                           	CLRR	_cur_key_id
                                           ;	.line	363; "MC30P6280.c"	return;
                                           	GOTO	_00295_DS_
                                           _00263_DS_
                                           ;	.line	366; "MC30P6280.c"	led_all_off();
                                           	CALL	_led_all_off
                                           ;	.line	369; "MC30P6280.c"	PUCON &= ~(0x01 << 0); // ÉĎŔ­µç×č 20K
                                           	BCLR	_PUCON,0
                                           ;	.line	370; "MC30P6280.c"	DDR1 |= 0x01 << 0;     // ĘäČëÄŁĘ˝
                                           	BSET	_DDR1,0
                                           ;	.line	377; "MC30P6280.c"	if (1 == KEY_SCAN_PIN) {
                                           	CLRR	r0x1021
                                           	JBCLR	_P1bits,0
                                           	INCR	r0x1021
                                           	MOVAR	r0x1021
                                           	XORAI	0x01
                                           	JBSET	STATUS,2
                                           	GOTO	_00265_DS_
                                           ;	.line	378; "MC30P6280.c"	cur_key_id = KEY_ID_NONE;
                                           	CLRR	_cur_key_id
                                           	GOTO	_00266_DS_
                                           _00265_DS_
                                           ;	.line	381; "MC30P6280.c"	cur_key_id = KEY_ID_VAILD;
                                           	MOVAI	0x01
                                           	MOVRA	_cur_key_id
                                           ;	.line	385; "MC30P6280.c"	pwr_off_cnt = 0;
                                           	CLRR	_pwr_off_cnt
                                           	CLRR	(_pwr_off_cnt + 1)
                                           ;	.line	386; "MC30P6280.c"	into_low_power_cnt = 0;
                                           	CLRR	_into_low_power_cnt
                                           _00266_DS_
                                           ;	.line	389; "MC30P6280.c"	if (cur_key_id != filter_key_id) {
                                           	MOVAR	_filter_key_id
                                           	XORAR	_cur_key_id
                                           	JBSET	STATUS,2
                                           	GOTO	_00349_DS_
                                           	GOTO	_00268_DS_
                                           _00349_DS_
                                           ;	.line	391; "MC30P6280.c"	filter_cnt = 0;
                                           	CLRR	_filter_cnt
                                           ;	.line	392; "MC30P6280.c"	filter_key_id = cur_key_id;
                                           	MOVAR	_cur_key_id
                                           	MOVRA	_filter_key_id
                                           ;	.line	393; "MC30P6280.c"	return;
                                           	GOTO	_00295_DS_
                                           ;;unsigned compare: left < lit(0x3=3), size=1
                                           _00268_DS_
                                           ;	.line	396; "MC30P6280.c"	if (filter_cnt < KEY_FILTER_TIMES) {
                                           	MOVAI	0x03
                                           	RSUBAR	_filter_cnt
                                           	JBCLR	STATUS,0
                                           	GOTO	_00270_DS_
                                           ;;genSkipc:3291: created from rifx:013B5EFC
                                           ;	.line	399; "MC30P6280.c"	filter_cnt++;
                                           	INCR	_filter_cnt
                                           ;	.line	400; "MC30P6280.c"	return;
                                           	GOTO	_00295_DS_
                                           _00270_DS_
                                           ;	.line	404; "MC30P6280.c"	if (last_key_id != cur_key_id) {
                                           	MOVAR	_cur_key_id
                                           	XORAR	_last_key_id
                                           	JBSET	STATUS,2
                                           	GOTO	_00351_DS_
                                           	GOTO	_00293_DS_
                                           _00351_DS_
                                           ;	.line	407; "MC30P6280.c"	if (cur_key_id == KEY_ID_NONE) {
                                           	MOVAI	0x00
                                           	ORAR	_cur_key_id
                                           	JBSET	STATUS,2
                                           	GOTO	_00272_DS_
                                           ;	.line	409; "MC30P6280.c"	click_delay_cnt = 0;
                                           	CLRR	_click_delay_cnt
                                           	GOTO	_00294_DS_
                                           _00272_DS_
                                           ;	.line	413; "MC30P6280.c"	press_cnt = 0; // ÖŘÖĂ°´Ľü°´ĎÂĘ±ĽäĽĆĘý
                                           	CLRR	_press_cnt
                                           ;	.line	414; "MC30P6280.c"	click_cnt++;
                                           	INCR	_click_cnt
                                           	GOTO	_00294_DS_
                                           _00293_DS_
                                           ;	.line	424; "MC30P6280.c"	if (cur_key_id == KEY_ID_NONE) { // Ă»ÓĐ°´Ľü°´ĎÂŁ¬ËµĂ÷ËÉĘÖ
                                           	MOVAI	0x00
                                           	ORAR	_cur_key_id
                                           	JBSET	STATUS,2
                                           	GOTO	_00290_DS_
                                           ;	.line	425; "MC30P6280.c"	if (click_cnt > 0) {
                                           	MOVAI	0x00
                                           	ORAR	_click_cnt
                                           	JBCLR	STATUS,2
                                           	GOTO	_00294_DS_
                                           ;;unsigned compare: left < lit(0x1E=30), size=1
                                           ;	.line	426; "MC30P6280.c"	if (click_delay_cnt >= KEY_CLICK_DELAY_TIME) {
                                           	MOVAI	0x1e
                                           	RSUBAR	_click_delay_cnt
                                           	JBSET	STATUS,0
                                           	GOTO	_00283_DS_
                                           ;;genSkipc:3291: created from rifx:013B5EFC
                                           ;	.line	427; "MC30P6280.c"	if (click_cnt == 1) {
                                           	MOVAR	_click_cnt
                                           	XORAI	0x01
                                           	JBSET	STATUS,2
                                           	GOTO	_00353_DS_
                                           	GOTO	_00279_DS_
                                           _00353_DS_
                                           ;	.line	432; "MC30P6280.c"	flag_is_dev_working = ~flag_is_dev_working;
                                           	CLRR	r0x1021
                                           	JBCLR	_flag1,6
                                           	INCR	r0x1021
                                           	COMAR	r0x1021
                                           	MOVRA	r0x1021
                                           	RRAR	r0x1021
                                           	JBSET	STATUS,0
                                           	BCLR	_flag1,6
                                           	JBCLR	STATUS,0
                                           	BSET	_flag1,6
                                           ;	.line	436; "MC30P6280.c"	if (flag_is_dev_working) {
                                           	JBSET	_flag1,6
                                           	GOTO	_00275_DS_
                                           ;	.line	437; "MC30P6280.c"	pen_pwr_on();
                                           	CALL	_pen_pwr_on
                                           ;	.line	439; "MC30P6280.c"	led_sta_reflash_cnt = (u8)(500 / 10);
                                           	MOVAI	0x32
                                           	MOVRA	_led_sta_reflash_cnt
                                           	GOTO	_00279_DS_
                                           _00275_DS_
                                           ;	.line	442; "MC30P6280.c"	pen_pwr_off();
                                           	CALL	_pen_pwr_off
                                           ;	.line	443; "MC30P6280.c"	flag_led_1_on = 0;
                                           	BCLR	_flag1,2
                                           ;	.line	444; "MC30P6280.c"	flag_led_2_on = 0;
                                           	BCLR	_flag1,3
                                           ;	.line	445; "MC30P6280.c"	flag_led_3_on = 0;
                                           	BCLR	_flag1,4
                                           ;	.line	446; "MC30P6280.c"	flag_led_4_on = 0;
                                           	BCLR	_flag1,5
                                           _00279_DS_
                                           ;	.line	450; "MC30P6280.c"	click_cnt = 0; // ´¦ŔíÍęĘÂĽţşó,ÇĺżŐÁ¬»÷µÄ´ÎĘý
                                           	CLRR	_click_cnt
                                           	GOTO	_00294_DS_
                                           ;;unsigned compare: left < lit(0xFF=255), size=1
                                           _00283_DS_
                                           ;	.line	452; "MC30P6280.c"	if (click_delay_cnt < 255) {
                                           	MOVAI	0xff
                                           	RSUBAR	_click_delay_cnt
                                           	JBCLR	STATUS,0
                                           	GOTO	_00294_DS_
                                           ;;genSkipc:3291: created from rifx:013B5EFC
                                           ;	.line	454; "MC30P6280.c"	click_delay_cnt++;
                                           	INCR	_click_delay_cnt
                                           	GOTO	_00294_DS_
                                           ;;unsigned compare: left < lit(0xFF=255), size=1
                                           _00290_DS_
                                           ;	.line	463; "MC30P6280.c"	if (press_cnt < 255) {
                                           	MOVAI	0xff
                                           	RSUBAR	_press_cnt
                                           	JBCLR	STATUS,0
                                           	GOTO	_00294_DS_
                                           ;;genSkipc:3291: created from rifx:013B5EFC
                                           ;	.line	464; "MC30P6280.c"	press_cnt++;
                                           	INCR	_press_cnt
                                           _00294_DS_
                                           ;	.line	469; "MC30P6280.c"	last_key_id = cur_key_id;
                                           	MOVAR	_cur_key_id
                                           	MOVRA	_last_key_id
                                           _00295_DS_
                                           ;	.line	470; "MC30P6280.c"	}
                                           	RETURN	
                                           ; exit point of _key_scan
                                           
                                           ;***
                                           ;  pBlock Stats: dbName = C
                                           ;***
                                           ;entry:  _led4_on	;Function start
                                           ; 2 exit points
                                           ;has an exit
                                           ;; Starting pCode block
                                           _led4_on	;Function start
                                           ; 2 exit points
                                           ;	.line	344; "MC30P6280.c"	P1 &= ~(0x01 << 0);   // P10 ĘäłöµÍµçĆ˝
                                           	BCLR	_P1,0
                                           ;	.line	345; "MC30P6280.c"	DDR1 &= ~(0x01 << 0); // P10 ĘäłöÄŁĘ˝
                                           	BCLR	_DDR1,0
                                           ;	.line	347; "MC30P6280.c"	P1 |= (0x01 << 2);    // P12 Ęäłö¸ßµçĆ˝
                                           	BSET	_P1,2
                                           ;	.line	348; "MC30P6280.c"	DDR1 &= ~(0x01 << 2); // P12 ĘäłöÄŁĘ˝
                                           	BCLR	_DDR1,2
                                           ;	.line	349; "MC30P6280.c"	}
                                           	RETURN	
                                           ; exit point of _led4_on
                                           
                                           ;***
                                           ;  pBlock Stats: dbName = C
                                           ;***
                                           ;entry:  _led3_on	;Function start
                                           ; 2 exit points
                                           ;has an exit
                                           ;; Starting pCode block
                                           _led3_on	;Function start
                                           ; 2 exit points
                                           ;	.line	332; "MC30P6280.c"	P1 &= ~(0x01 << 2);   // P12 ĘäłöµÍµçĆ˝
                                           	BCLR	_P1,2
                                           ;	.line	333; "MC30P6280.c"	DDR1 &= ~(0x01 << 2); // P12 ĘäłöÄŁĘ˝
                                           	BCLR	_DDR1,2
                                           ;	.line	335; "MC30P6280.c"	P1 |= (0x01 << 0);    // P10 Ęäłö¸ßµçĆ˝
                                           	BSET	_P1,0
                                           ;	.line	336; "MC30P6280.c"	DDR1 &= ~(0x01 << 0); // P10 ĘäłöÄŁĘ˝
                                           	BCLR	_DDR1,0
                                           ;	.line	337; "MC30P6280.c"	}
                                           	RETURN	
                                           ; exit point of _led3_on
                                           
                                           ;***
                                           ;  pBlock Stats: dbName = C
                                           ;***
                                           ;entry:  _led2_on	;Function start
                                           ; 2 exit points
                                           ;has an exit
                                           ;; Starting pCode block
                                           _led2_on	;Function start
                                           ; 2 exit points
                                           ;	.line	319; "MC30P6280.c"	P1 &= ~(0x01 << 1);   // P11 ĘäłöµÍµçĆ˝
                                           	BCLR	_P1,1
                                           ;	.line	320; "MC30P6280.c"	DDR1 &= ~(0x01 << 1); // P11 ĘäłöÄŁĘ˝
                                           	BCLR	_DDR1,1
                                           ;	.line	323; "MC30P6280.c"	P1 |= (0x01 << 0);    // P10 Ęäłö¸ßµçĆ˝
                                           	BSET	_P1,0
                                           ;	.line	324; "MC30P6280.c"	DDR1 &= ~(0x01 << 0); // P10 ĘäłöÄŁĘ˝
                                           	BCLR	_DDR1,0
                                           ;	.line	325; "MC30P6280.c"	}
                                           	RETURN	
                                           ; exit point of _led2_on
                                           
                                           ;***
                                           ;  pBlock Stats: dbName = C
                                           ;***
                                           ;entry:  _led1_on	;Function start
                                           ; 2 exit points
                                           ;has an exit
                                           ;; Starting pCode block
                                           _led1_on	;Function start
                                           ; 2 exit points
                                           ;	.line	304; "MC30P6280.c"	P1 &= ~(0x01 << 0);
                                           	BCLR	_P1,0
                                           ;	.line	305; "MC30P6280.c"	DDR1 &= ~(0x01 << 0); // ĘäłöÄŁĘ˝
                                           	BCLR	_DDR1,0
                                           ;	.line	309; "MC30P6280.c"	P1 |= (0x01 << 1);    // P11 Ęäłö¸ßµçĆ˝
                                           	BSET	_P1,1
                                           ;	.line	310; "MC30P6280.c"	DDR1 &= ~(0x01 << 1); // P11 ĘäłöÄŁĘ˝
                                           	BCLR	_DDR1,1
                                           ;	.line	311; "MC30P6280.c"	}
                                           	RETURN	
                                           ; exit point of _led1_on
                                           
                                           ;***
                                           ;  pBlock Stats: dbName = C
                                           ;***
                                           ;entry:  _led_all_off	;Function start
                                           ; 2 exit points
                                           ;has an exit
                                           ;; Starting pCode block
                                           _led_all_off	;Function start
                                           ; 2 exit points
                                           ;	.line	289; "MC30P6280.c"	PUCON |= (0x01 << 0 | 0x01 << 1 | 0x01 << 2);
                                           	MOVAI	0x07
                                           	ORRA	_PUCON
                                           ;	.line	294; "MC30P6280.c"	(0x01 << 2);  // P12
                                           	MOVAI	0x07
                                           	ORRA	_DDR1
                                           ;	.line	296; "MC30P6280.c"	}
                                           	RETURN	
                                           ; exit point of _led_all_off
                                           
                                           ;***
                                           ;  pBlock Stats: dbName = C
                                           ;***
                                           ;entry:  _pen_pwr_off	;Function start
                                           ; 2 exit points
                                           ;has an exit
                                           ;; Starting pCode block
                                           _pen_pwr_off	;Function start
                                           ; 2 exit points
                                           ;	.line	275; "MC30P6280.c"	PUCON |= (0x01 << 4); // ˛»ĘąÄÜÉĎŔ­
                                           	BSET	_PUCON,4
                                           ;	.line	276; "MC30P6280.c"	PDCON |= (0x01 << 4); // ˛»ĘąÄÜĎÂŔ­
                                           	BSET	_PDCON,4
                                           ;	.line	277; "MC30P6280.c"	DDR1 |= 0x01 << 4;    // P14 ĘäČëÄŁĘ˝
                                           	BSET	_DDR1,4
                                           ;	.line	279; "MC30P6280.c"	}
                                           	RETURN	
                                           ; exit point of _pen_pwr_off
                                           
                                           ;***
                                           ;  pBlock Stats: dbName = C
                                           ;***
                                           ;entry:  _pen_pwr_on	;Function start
                                           ; 2 exit points
                                           ;has an exit
                                           ;; Starting pCode block
                                           _pen_pwr_on	;Function start
                                           ; 2 exit points
                                           ;	.line	266; "MC30P6280.c"	DDR1 &= ~(0x01 << 4); // ĘäłöÄŁĘ˝
                                           	BCLR	_DDR1,4
                                           ;	.line	267; "MC30P6280.c"	P14D = 0;             // ĘäłöµÍµçĆ˝
                                           	BCLR	_P1bits,4
                                           ;	.line	269; "MC30P6280.c"	}
                                           	RETURN	
                                           ; exit point of _pen_pwr_on
                                           
                                           ;***
                                           ;  pBlock Stats: dbName = C
                                           ;***
                                           ;entry:  _user_init	;Function start
                                           ; 2 exit points
                                           ;has an exit
                                           ;functions called:
                                           ;   _timer0_init
                                           ;   _timer1_init
                                           ;   _delay_ms
                                           ;   _timer0_init
                                           ;   _timer1_init
                                           ;   _delay_ms
                                           ;3 compiler assigned registers:
                                           ;   STK02
                                           ;   STK01
                                           ;   STK00
                                           ;; Starting pCode block
                                           _user_init	;Function start
                                           ; 2 exit points
                                           ;	.line	236; "MC30P6280.c"	PUCON &= ~(0x01 << 0); // ÉĎŔ­µç×č 20K
                                           	BCLR	_PUCON,0
                                           ;	.line	237; "MC30P6280.c"	DDR1 |= 0x01 << 0;     // ĘäČëÄŁĘ˝
                                           	BSET	_DDR1,0
                                           ;	.line	240; "MC30P6280.c"	DDR1 |= 0x01 << 4; // P14 ĘäČëÄŁĘ˝
                                           	BSET	_DDR1,4
                                           ;	.line	243; "MC30P6280.c"	DDR1 |= 0x01 << 5; // ĘäČëÄŁĘ˝
                                           	BSET	_DDR1,5
                                           ;	.line	246; "MC30P6280.c"	DDR1 |= 0x01 << 3;
                                           	BSET	_DDR1,3
                                           ;	.line	248; "MC30P6280.c"	timer0_init();
                                           	CALL	_timer0_init
                                           ;	.line	249; "MC30P6280.c"	timer1_init();
                                           	CALL	_timer1_init
                                           ;	.line	259; "MC30P6280.c"	delay_ms(1); // µČ´ýĎµÍłÎČ¶¨
                                           	MOVAI	0x01
                                           	MOVRA	STK02
                                           	MOVAI	0x00
                                           	MOVRA	STK01
                                           	MOVAI	0x00
                                           	MOVRA	STK00
                                           	MOVAI	0x00
                                           	CALL	_delay_ms
                                           ;	.line	260; "MC30P6280.c"	}
                                           	RETURN	
                                           ; exit point of _user_init
                                           
                                           ;***
                                           ;  pBlock Stats: dbName = C
                                           ;***
                                           ;entry:  _delay_ms	;Function start
                                           ; 2 exit points
                                           ;has an exit
                                           ;11 compiler assigned registers:
                                           ;   r0x1017
                                           ;   STK00
                                           ;   r0x1018
                                           ;   STK01
                                           ;   r0x1019
                                           ;   STK02
                                           ;   r0x101A
                                           ;   r0x101B
                                           ;   r0x101C
                                           ;   r0x101D
                                           ;   r0x101E
                                           ;; Starting pCode block
                                           _delay_ms	;Function start
                                           ; 2 exit points
                                           ;	.line	220; "MC30P6280.c"	void delay_ms(u32 xms)
                                           	MOVRA	r0x1017
                                           	MOVAR	STK00
                                           	MOVRA	r0x1018
                                           	MOVAR	STK01
                                           	MOVRA	r0x1019
                                           	MOVAR	STK02
                                           	MOVRA	r0x101A
                                           _00222_DS_
                                           ;	.line	222; "MC30P6280.c"	while (xms) {
                                           	MOVAR	r0x101A
                                           	ORAR	r0x1019
                                           	ORAR	r0x1018
                                           	ORAR	r0x1017
                                           	JBCLR	STATUS,2
                                           	GOTO	_00225_DS_
                                           ;	.line	224; "MC30P6280.c"	while (i--) {
                                           	MOVAI	0x13
                                           	MOVRA	r0x101B
                                           	MOVAI	0x02
                                           	MOVRA	r0x101C
                                           _00219_DS_
                                           	MOVAR	r0x101B
                                           	MOVRA	r0x101D
                                           	MOVAR	r0x101C
                                           	MOVRA	r0x101E
                                           	MOVAI	0xff
                                           	ADDRA	r0x101B
                                           	JBSET	STATUS,0
                                           	DECR	r0x101C
                                           	MOVAR	r0x101D
                                           	ORAR	r0x101E
                                           	JBCLR	STATUS,2
                                           	GOTO	_00221_DS_
                                           ;	.line	225; "MC30P6280.c"	Nop();
                                           	nop	
                                           	GOTO	_00219_DS_
                                           _00221_DS_
                                           ;	.line	227; "MC30P6280.c"	xms--;
                                           	MOVAI	0xff
                                           	ADDRA	r0x101A
                                           	MOVAI	0xff
                                           	JBSET	STATUS,0
                                           	ADDRA	r0x1019
                                           	MOVAI	0xff
                                           	JBSET	STATUS,0
                                           	ADDRA	r0x1018
                                           	MOVAI	0xff
                                           	JBSET	STATUS,0
                                           	ADDRA	r0x1017
                                           	GOTO	_00222_DS_
                                           _00225_DS_
                                           ;	.line	229; "MC30P6280.c"	}
                                           	RETURN	
                                           ; exit point of _delay_ms
                                           
                                           ;***
                                           ;  pBlock Stats: dbName = C
                                           ;***
                                           ;entry:  _Sys_Init	;Function start
                                           ; 2 exit points
                                           ;has an exit
                                           ;functions called:
                                           ;   _C_RAM
                                           ;   _IO_Init
                                           ;   _C_RAM
                                           ;   _IO_Init
                                           ;; Starting pCode block
                                           _Sys_Init	;Function start
                                           ; 2 exit points
                                           ;	.line	212; "MC30P6280.c"	GIE = 0;
                                           	BCLR	_INTEbits,7
                                           ;	.line	213; "MC30P6280.c"	C_RAM();
                                           	CALL	_C_RAM
                                           ;	.line	214; "MC30P6280.c"	IO_Init();
                                           	CALL	_IO_Init
                                           ;	.line	215; "MC30P6280.c"	GIE = 1;
                                           	BSET	_INTEbits,7
                                           ;	.line	216; "MC30P6280.c"	}
                                           	RETURN	
                                           ; exit point of _Sys_Init
                                           
                                           ;***
                                           ;  pBlock Stats: dbName = C
                                           ;***
                                           ;entry:  _lvd_scan	;Function start
                                           ; 2 exit points
                                           ;has an exit
                                           ;1 compiler assigned register :
                                           ;   r0x1022
                                           ;; Starting pCode block
                                           _lvd_scan	;Function start
                                           ; 2 exit points
                                           ;	.line	94; "MC30P6280.c"	LVDEN = 1; // ĘąÄÜ LVD
                                           	BSET	_MCRbits,0
                                           ;	.line	96; "MC30P6280.c"	switch (cur_lvd_state) {
                                           	MOVAR	_cur_lvd_state
                                           	MOVRA	r0x1022
                                           ;;swapping arguments (AOP_TYPEs 1/2)
                                           ;;unsigned compare: left >= lit(0xF=15), size=1
                                           	MOVAI	0x0f
                                           	RSUBAR	r0x1022
                                           	JBCLR	STATUS,0
                                           	GOTO	_00128_DS_
                                           ;;genSkipc:3291: created from rifx:013B5EFC
                                           	MOVAI	HIGH(_00201_DS_)
                                           	MOVRA	PCLATH
                                           	MOVAI	_00201_DS_
                                           	ADDAR	r0x1022
                                           	JBCLR	STATUS,0
                                           	INCR	PCLATH
                                           	MOVRA	PCL
                                           _00201_DS_
                                           	GOTO	_00114_DS_
                                           	GOTO	_00121_DS_
                                           	GOTO	_00115_DS_
                                           	GOTO	_00122_DS_
                                           	GOTO	_00116_DS_
                                           	GOTO	_00123_DS_
                                           	GOTO	_00117_DS_
                                           	GOTO	_00124_DS_
                                           	GOTO	_00118_DS_
                                           	GOTO	_00125_DS_
                                           	GOTO	_00119_DS_
                                           	GOTO	_00126_DS_
                                           	GOTO	_00120_DS_
                                           	GOTO	_00127_DS_
                                           	GOTO	_00114_DS_
                                           _00114_DS_
                                           ;	.line	100; "MC30P6280.c"	MCR &= ~MCR_LVD_CFG_ALL;
                                           	MOVAI	0xe1
                                           	ANDRA	_MCR
                                           ;	.line	101; "MC30P6280.c"	MCR |= MCR_LVD_CFG_4V2;
                                           	MOVAI	0x1e
                                           	ORRA	_MCR
                                           ;	.line	102; "MC30P6280.c"	cur_lvd_state = LVD_LEV_4V2_SWITCHING;
                                           	MOVAI	0x01
                                           	MOVRA	_cur_lvd_state
                                           ;	.line	103; "MC30P6280.c"	break;
                                           	GOTO	_00128_DS_
                                           _00115_DS_
                                           ;	.line	105; "MC30P6280.c"	MCR &= ~MCR_LVD_CFG_ALL;
                                           	MOVAI	0xe1
                                           	ANDRA	_MCR
                                           ;	.line	106; "MC30P6280.c"	MCR |= MCR_LVD_CFG_4V0;
                                           	MOVAI	0x1c
                                           	ORRA	_MCR
                                           ;	.line	107; "MC30P6280.c"	cur_lvd_state = LVD_LEV_4V0_SWITCHING;
                                           	MOVAI	0x03
                                           	MOVRA	_cur_lvd_state
                                           ;	.line	108; "MC30P6280.c"	break;
                                           	GOTO	_00128_DS_
                                           _00116_DS_
                                           ;	.line	110; "MC30P6280.c"	MCR &= ~MCR_LVD_CFG_ALL;
                                           	MOVAI	0xe1
                                           	ANDRA	_MCR
                                           ;	.line	111; "MC30P6280.c"	MCR |= MCR_LVD_CFG_3V6;
                                           	MOVAI	0x1a
                                           	ORRA	_MCR
                                           ;	.line	112; "MC30P6280.c"	cur_lvd_state = LVD_LEV_3V6_SWITCHING;
                                           	MOVAI	0x05
                                           	MOVRA	_cur_lvd_state
                                           ;	.line	113; "MC30P6280.c"	break;
                                           	GOTO	_00128_DS_
                                           _00117_DS_
                                           ;	.line	115; "MC30P6280.c"	MCR &= ~MCR_LVD_CFG_ALL;
                                           	MOVAI	0xe1
                                           	ANDRA	_MCR
                                           ;	.line	116; "MC30P6280.c"	MCR |= MCR_LVD_CFG_3V3;
                                           	MOVAI	0x18
                                           	ORRA	_MCR
                                           ;	.line	117; "MC30P6280.c"	cur_lvd_state = LVD_LEV_3V3_SWITCHING;
                                           	MOVAI	0x07
                                           	MOVRA	_cur_lvd_state
                                           ;	.line	118; "MC30P6280.c"	break;
                                           	GOTO	_00128_DS_
                                           _00118_DS_
                                           ;	.line	120; "MC30P6280.c"	MCR &= ~MCR_LVD_CFG_ALL;
                                           	MOVAI	0xe1
                                           	ANDRA	_MCR
                                           ;	.line	121; "MC30P6280.c"	MCR |= MCR_LVD_CFG_3V2;
                                           	MOVAI	0x16
                                           	ORRA	_MCR
                                           ;	.line	122; "MC30P6280.c"	cur_lvd_state = LVD_LEV_3V2_SWITCHING;
                                           	MOVAI	0x09
                                           	MOVRA	_cur_lvd_state
                                           ;	.line	123; "MC30P6280.c"	break;
                                           	GOTO	_00128_DS_
                                           _00119_DS_
                                           ;	.line	125; "MC30P6280.c"	MCR &= ~MCR_LVD_CFG_ALL;
                                           	MOVAI	0xe1
                                           	ANDRA	_MCR
                                           ;	.line	126; "MC30P6280.c"	MCR |= MCR_LVD_CFG_3V0;
                                           	MOVAI	0x14
                                           	ORRA	_MCR
                                           ;	.line	127; "MC30P6280.c"	cur_lvd_state = LVD_LEV_3V0_SWITCHING;
                                           	MOVAI	0x0b
                                           	MOVRA	_cur_lvd_state
                                           ;	.line	128; "MC30P6280.c"	break;
                                           	GOTO	_00128_DS_
                                           _00120_DS_
                                           ;	.line	130; "MC30P6280.c"	MCR &= ~MCR_LVD_CFG_ALL;
                                           	MOVAI	0xe1
                                           	ANDRA	_MCR
                                           ;	.line	131; "MC30P6280.c"	MCR |= MCR_LVD_CFG_2V9;
                                           	MOVAI	0x12
                                           	ORRA	_MCR
                                           ;	.line	132; "MC30P6280.c"	cur_lvd_state = LVD_LEV_2V9_SWITCHING;
                                           	MOVAI	0x0d
                                           	MOVRA	_cur_lvd_state
                                           ;	.line	133; "MC30P6280.c"	break;
                                           	GOTO	_00128_DS_
                                           _00121_DS_
                                           ;	.line	136; "MC30P6280.c"	cur_lvd_state = LVD_LEV_4V2;
                                           	MOVAI	0x02
                                           	MOVRA	_cur_lvd_state
                                           ;	.line	137; "MC30P6280.c"	cur_cmp_bat_lev = BAT_LEV_4V2;
                                           	MOVAI	0x06
                                           	MOVRA	_cur_cmp_bat_lev
                                           ;	.line	138; "MC30P6280.c"	break;
                                           	GOTO	_00128_DS_
                                           _00122_DS_
                                           ;	.line	140; "MC30P6280.c"	cur_lvd_state = LVD_LEV_4V0;
                                           	MOVAI	0x04
                                           	MOVRA	_cur_lvd_state
                                           ;	.line	141; "MC30P6280.c"	cur_cmp_bat_lev = BAT_LEV_4V0;
                                           	MOVAI	0x05
                                           	MOVRA	_cur_cmp_bat_lev
                                           ;	.line	142; "MC30P6280.c"	break;
                                           	GOTO	_00128_DS_
                                           _00123_DS_
                                           ;	.line	144; "MC30P6280.c"	cur_lvd_state = LVD_LEV_3V6;
                                           	MOVAI	0x06
                                           	MOVRA	_cur_lvd_state
                                           ;	.line	145; "MC30P6280.c"	cur_cmp_bat_lev = BAT_LEV_3V6;
                                           	MOVAI	0x04
                                           	MOVRA	_cur_cmp_bat_lev
                                           ;	.line	146; "MC30P6280.c"	break;
                                           	GOTO	_00128_DS_
                                           _00124_DS_
                                           ;	.line	148; "MC30P6280.c"	cur_lvd_state = LVD_LEV_3V3;
                                           	MOVAI	0x08
                                           	MOVRA	_cur_lvd_state
                                           ;	.line	149; "MC30P6280.c"	cur_cmp_bat_lev = BAT_LEV_3V3;
                                           	MOVAI	0x03
                                           	MOVRA	_cur_cmp_bat_lev
                                           ;	.line	150; "MC30P6280.c"	break;
                                           	GOTO	_00128_DS_
                                           _00125_DS_
                                           ;	.line	152; "MC30P6280.c"	cur_lvd_state = LVD_LEV_3V2;
                                           	MOVAI	0x0a
                                           	MOVRA	_cur_lvd_state
                                           ;	.line	153; "MC30P6280.c"	cur_cmp_bat_lev = BAT_LEV_3V2;
                                           	MOVAI	0x02
                                           	MOVRA	_cur_cmp_bat_lev
                                           ;	.line	154; "MC30P6280.c"	break;
                                           	GOTO	_00128_DS_
                                           _00126_DS_
                                           ;	.line	156; "MC30P6280.c"	cur_lvd_state = LVD_LEV_3V0;
                                           	MOVAI	0x0c
                                           	MOVRA	_cur_lvd_state
                                           ;	.line	157; "MC30P6280.c"	cur_cmp_bat_lev = BAT_LEV_3V0;
                                           	MOVAI	0x01
                                           	MOVRA	_cur_cmp_bat_lev
                                           ;	.line	158; "MC30P6280.c"	break;
                                           	GOTO	_00128_DS_
                                           _00127_DS_
                                           ;	.line	160; "MC30P6280.c"	cur_lvd_state = LVD_LEV_2V9;
                                           	MOVAI	0x0e
                                           	MOVRA	_cur_lvd_state
                                           ;	.line	161; "MC30P6280.c"	cur_cmp_bat_lev = BAT_LEV_2V9;
                                           	CLRR	_cur_cmp_bat_lev
                                           _00128_DS_
                                           ;	.line	165; "MC30P6280.c"	if (cur_lvd_state == LVD_LEV_4V2 || cur_lvd_state == LVD_LEV_4V0 ||
                                           	MOVAR	_cur_lvd_state
                                           	XORAI	0x02
                                           	JBSET	STATUS,2
                                           	GOTO	_00202_DS_
                                           	GOTO	_00142_DS_
                                           _00202_DS_
                                           	MOVAR	_cur_lvd_state
                                           	XORAI	0x04
                                           	JBSET	STATUS,2
                                           	GOTO	_00203_DS_
                                           	GOTO	_00142_DS_
                                           _00203_DS_
                                           ;	.line	166; "MC30P6280.c"	cur_lvd_state == LVD_LEV_3V6 || cur_lvd_state == LVD_LEV_3V3 ||
                                           	MOVAR	_cur_lvd_state
                                           	XORAI	0x06
                                           	JBSET	STATUS,2
                                           	GOTO	_00204_DS_
                                           	GOTO	_00142_DS_
                                           _00204_DS_
                                           	MOVAR	_cur_lvd_state
                                           	XORAI	0x08
                                           	JBSET	STATUS,2
                                           	GOTO	_00205_DS_
                                           	GOTO	_00142_DS_
                                           _00205_DS_
                                           ;	.line	167; "MC30P6280.c"	cur_lvd_state == LVD_LEV_3V2 || cur_lvd_state == LVD_LEV_3V0 ||
                                           	MOVAR	_cur_lvd_state
                                           	XORAI	0x0a
                                           	JBSET	STATUS,2
                                           	GOTO	_00206_DS_
                                           	GOTO	_00142_DS_
                                           _00206_DS_
                                           	MOVAR	_cur_lvd_state
                                           	XORAI	0x0c
                                           	JBSET	STATUS,2
                                           	GOTO	_00207_DS_
                                           	GOTO	_00142_DS_
                                           _00207_DS_
                                           ;	.line	168; "MC30P6280.c"	cur_lvd_state == LVD_LEV_2V9) {
                                           	MOVAR	_cur_lvd_state
                                           	XORAI	0x0e
                                           	JBSET	STATUS,2
                                           	GOTO	_00150_DS_
                                           _00142_DS_
                                           ;	.line	169; "MC30P6280.c"	if (LVDF) {
                                           	JBSET	_MCRbits,5
                                           	GOTO	_00140_DS_
                                           ;	.line	175; "MC30P6280.c"	if (tmp_bat_lev >= cur_cmp_bat_lev) {
                                           	MOVAR	_cur_cmp_bat_lev
                                           	RSUBAR	_tmp_bat_lev
                                           	JBSET	STATUS,0
                                           	GOTO	_00150_DS_
                                           ;;genSkipc:3291: created from rifx:013B5EFC
                                           ;	.line	177; "MC30P6280.c"	if (cur_cmp_bat_lev != BAT_LEV_2V9) {
                                           	MOVAI	0x00
                                           	ORAR	_cur_cmp_bat_lev
                                           	JBCLR	STATUS,2
                                           	GOTO	_00130_DS_
                                           ;	.line	178; "MC30P6280.c"	tmp_bat_lev -= 1;
                                           	MOVAR	_tmp_bat_lev
                                           	MOVRA	r0x1022
                                           	DECAR	r0x1022
                                           	MOVRA	_tmp_bat_lev
                                           	GOTO	_00150_DS_
                                           _00130_DS_
                                           ;	.line	180; "MC30P6280.c"	tmp_bat_lev = BAT_LEV_2V9;
                                           	CLRR	_tmp_bat_lev
                                           	GOTO	_00150_DS_
                                           _00140_DS_
                                           ;	.line	192; "MC30P6280.c"	if (tmp_bat_lev < cur_cmp_bat_lev) {
                                           	MOVAR	_cur_cmp_bat_lev
                                           	RSUBAR	_tmp_bat_lev
                                           	JBCLR	STATUS,0
                                           	GOTO	_00150_DS_
                                           ;;genSkipc:3291: created from rifx:013B5EFC
                                           ;	.line	194; "MC30P6280.c"	if (cur_cmp_bat_lev != BAT_LEV_4V2) {
                                           	MOVAR	_cur_cmp_bat_lev
                                           	XORAI	0x06
                                           	JBSET	STATUS,2
                                           	GOTO	_00210_DS_
                                           	GOTO	_00135_DS_
                                           _00210_DS_
                                           ;	.line	195; "MC30P6280.c"	tmp_bat_lev += 1;
                                           	MOVAR	_tmp_bat_lev
                                           	MOVRA	r0x1022
                                           	INCAR	r0x1022
                                           	MOVRA	_tmp_bat_lev
                                           	GOTO	_00150_DS_
                                           _00135_DS_
                                           ;	.line	197; "MC30P6280.c"	tmp_bat_lev = BAT_LEV_4V2;
                                           	MOVAI	0x06
                                           	MOVRA	_tmp_bat_lev
                                           _00150_DS_
                                           ;	.line	202; "MC30P6280.c"	}
                                           	RETURN	
                                           ; exit point of _lvd_scan
                                           
                                           ;***
                                           ;  pBlock Stats: dbName = C
                                           ;***
                                           ;entry:  _IO_Init	;Function start
                                           ; 2 exit points
                                           ;has an exit
                                           ;; Starting pCode block
                                           _IO_Init	;Function start
                                           ; 2 exit points
                                           ;	.line	81; "MC30P6280.c"	P1 = 0x00;    // 1:input 0:output
                                           	CLRR	_P1
                                           ;	.line	82; "MC30P6280.c"	DDR1 = 0x00;  // 1:input 0:output
                                           	CLRR	_DDR1
                                           ;	.line	83; "MC30P6280.c"	PUCON = 0xff; // 0:Effective 1:invalid
                                           	MOVAI	0xff
                                           	MOVRA	_PUCON
                                           ;	.line	84; "MC30P6280.c"	PDCON = 0xff; // 0:Effective 1:invalid
                                           	MOVAI	0xff
                                           	MOVRA	_PDCON
                                           ;	.line	85; "MC30P6280.c"	ODCON = 0x00; // 0:ÍĆÍěĘäłö  1:żŞÂ©Ęäłö
                                           	CLRR	_ODCON
                                           ;	.line	86; "MC30P6280.c"	}
                                           	RETURN	
                                           ; exit point of _IO_Init
                                           
                                           ;***
                                           ;  pBlock Stats: dbName = C
                                           ;***
                                           ;entry:  _C_RAM	;Function start
                                           ; 2 exit points
                                           ;has an exit
                                           ;; Starting pCode block
                                           _C_RAM	;Function start
                                           ; 2 exit points
                                           ;	.line	70; "MC30P6280.c"	__endasm;
                                           	;
                                           	movai	0x3F;
                                           	movra	FSR;
                                           	movai	47;
                                           	movra	0x3F;
                                           	decr	FSR;
                                           	clrr	INDF;
                                           	djzr	0x3F;
                                           	goto	$ - 3;
                                           	clrr	0x3F;
                                           	
                                           ;	.line	71; "MC30P6280.c"	}
                                           	RETURN	
                                           ; exit point of _C_RAM
                                           
                                           
                                           ;	code size estimation:
                                           ;	  834+    0 =   834 instructions ( 1668 byte)
                                           
                                           	end


MEMORY USAGE MAP ('X' = Used,  '-' = Unused)

0000 : XXXXXXXXXXXXXXXX XXXXXXXXXXXXXXXX XXXXXXXXXXXXXXXX XXXXXXXXXXXXXXXX
0040 : XXXXXXXXXXXXXXXX XXXXXXXXXXXXXXXX XXXXXXXXXXXXXXXX XXXXXXXXXXXXXXXX
0080 : XXXXXXXXXXXXXXXX XXXXXXXXXXXXXXXX XXXXXXXXXXXXXXXX XXXXXXXXXXXXXXXX
00C0 : XXXXXXXXXXXXXXXX XXXXXXXXXXXXXXXX XXXXXXXXXXXXXXXX XXXXXXXXXXXXXXXX
0100 : XXXXXXXXXXXXXXXX XXXXXXXXXXXXXXXX XXXXXXXXXXXXXXXX XXXXXXXXXXXXXXXX
0140 : XXXXXXXXXXXXXXXX XXXXXXXXXXXXXXXX XXXXXXXXXXXXXXXX XXXXXXXXXXXXXXXX
0180 : XXXXXXXXXXXXXXXX XXXXXXXXXXXXXXXX XXXXXXXXXXXXXXXX XXXXXXXXXXXXXXXX
01C0 : XXXXXXXXXXXXXXXX XXXXXXXXXXXXXXXX XXXXXXXXXXXXXXXX XXXXXXXXXXXXXXXX
0200 : XXXXXXXXXXXXXXXX XXXXXXXXXXXXXXXX XXXXXXXXXXXXXXXX XXXXXXXXXXXXXXXX
0240 : XXXXXXXXXXXXXXXX XXXXXXXXXXXXXXXX XXXXXXXXXXXXXXXX XXXXXXXXXXXXXXXX
0280 : XXXXXXXXXXXXXXXX XXXXXXXXXXXXXXXX XXXXXXXXXXXXXXXX XXXXXXXXXXXXXXXX
02C0 : XXXXXXXXXXXXXXXX XXXXXXXXXXXXXXXX XXXXXXXXXXXXXXXX XXXXXXXXXXXXXXXX
0300 : XXXXXXXXXXXXXXXX XXXXXXXXXXXXXXXX XXXXXXXXXXXXXXXX XXXXXXXXXXXXXXXX
0340 : XXXXXXXXXXXXXXXX XXXXXXXXXXXXXXXX XXXXXXXXXXXXXXXX XXXXXXXXXXXXXXXX
0380 : XXXXXXXXXXXXXXXX XXXXXXXXXXXXXXXX XXXXXXXXXXXXXXXX XXXXXXXXXXXXXXXX
03C0 : XXXXXXXXXXXXXXXX XXXXXXXXXXXXXXXX XXXXXXXXXXXXXXXX XXXXXXXXXXXXXXXX
0400 : XXXXXXXXXXXXXXXX XXXXXXXXXXXXXXXX XXXXXXXXXXXXXXXX XXXXXXXXXXXXXXXX
0440 : XXXXXXXXXXXXXXXX XXXXXXXXXXXXXXXX XXXXXXXXXXXXXXXX XXXXXXXXXXXXXXXX
0480 : XXXXXXXXXXXXXXXX XXXXXXXXXXXXXXXX XXXXXXXXXXXXXXXX XXXXXXXXXXXXXXXX
04C0 : XXXXXXXXXXXXXXXX XXXXXXXXXXXXXXXX XXXXXXXXXXXXXXXX XXXXXXXXXXXXXXXX
0500 : XXXXXXXXXXXXXXXX XXXXXXXXXXXXXXXX XXXXXXXXXXXXXXXX XXXXXXXXXXXXXXXX
0540 : XXXXXXXXXXXXXXXX XXXXXXXXXXXXXXXX XXXXXXXXXXXXXXXX XXXXXXXXXXXXXXXX
0580 : XXXXXXXXXXXXXXXX XXXXXXXXXXXXXXXX XXXXXXXXXXXXXXXX XXXXXXXXXXXXXXXX
05C0 : XXXXXXXXXXXXXXXX XXXXXXXXXXXXXXXX XXXXXXXXXXXXXXXX XXXXXXXXXXXXXXXX
0600 : XXXXXXXXXXXXXXXX XXXXXXXXXXXXXXXX XXXXXXXXXXXXXXXX XXXXXXXXXXXXXXXX
0640 : XXXXXXXXXXXXXXXX XXXXXXXXXXXXXXXX XXXXXXXXXXXXXXXX XXXXXXXXXXXXXXXX
0680 : XXXXXXXXXXXXXXXX XXXXXXXXXXXXXXXX XXXXXXXXXXXXXXXX XXXXXXXXXXXXXXXX
06C0 : XXXXXXXXXXXXXXXX XXXXXXXXXXXXXXXX XXXXXXXXXXXXXXXX XXXXXXXXXXXXXXXX
0700 : XXXXXXXXXXXXXXXX XXXXXXXXXXXXXXXX XXXXXXXXXXXXXXXX XXXXXXXXXXXXXXXX
0740 : XXXXXXXXXXXXXXXX XXXXXXXXXXXXXXXX XXXXXXXXXXXXXXXX XXXXXXXXXXXXXXXX
0780 : XXXXXXXXXXXXXXXX XXXXXXXXXXXXXXXX XXXXXXXXXXXXXXXX ----------------

All other memory blocks unused.

Program Memory Words Used:   984

