gplink-2.2.37 (Jan 22 2024)
Listing File Generated: 2026-4-15  18:24:24
 
 
Address  Value    Disassembly              Source
-------  -----    -----------              ------
                                           ;--------------------------------------------------------
                                           ; external declarations
                                           ;--------------------------------------------------------
                                           	extern	_LVD_Init
                                           	extern	_timer0_init
                                           	extern	_timer1_init
                                           	extern	_INDFbits
                                           	extern	_T0CNTbits
                                           	extern	_PCLbits
                                           	extern	_STATUSbits
                                           	extern	_FSRbits
                                           	extern	_P1bits
                                           	extern	_MCRbits
                                           	extern	_P1KBCRbits
                                           	extern	_PCLATHbits
                                           	extern	_PDCONbits
                                           	extern	_ODCONbits
                                           	extern	_PUCONbits
                                           	extern	_INTEbits
                                           	extern	_INTFbits
                                           	extern	_T0CRbits
                                           	extern	_DDR1bits
                                           	extern	_TMRCRbits
                                           	extern	_T1CRbits
                                           	extern	_T1CNTbits
                                           	extern	_T1LOADbits
                                           	extern	_T1DATAbits
                                           	extern	_flag2
                                           	extern	_INDF
                                           	extern	_T0CNT
                                           	extern	_PCL
                                           	extern	_STATUS
                                           	extern	_FSR
                                           	extern	_P1
                                           	extern	_MCR
                                           	extern	_P1KBCR
                                           	extern	_PCLATH
                                           	extern	_PDCON
                                           	extern	_ODCON
                                           	extern	_PUCON
                                           	extern	_INTE
                                           	extern	_INTF
                                           	extern	_T0CR
                                           	extern	_DDR1
                                           	extern	_TMRCR
                                           	extern	_T1CR
                                           	extern	_T1CNT
                                           	extern	_T1LOAD
                                           	extern	_T1DATA
                                           ;--------------------------------------------------------
                                           ; global declarations
                                           ;--------------------------------------------------------
                                           	global	_led_refresh
                                           	global	_led_status_handle
                                           	global	_key_scan
                                           	global	_led4_on
                                           	global	_led3_on
                                           	global	_led2_on
                                           	global	_led1_on
                                           	global	_led_all_off
                                           	global	_user_init
                                           	global	_Sys_Init
                                           	global	_lvd_scan
                                           	global	_IO_Init
                                           	global	_C_RAM
                                           	global	_delay_ms
                                           	global	_pen_pwr_on
                                           	global	_pen_pwr_off
                                           	global	_main
                                           	global	_int_isr
                                           	global	_abuf
                                           	global	_statusbuf
                                           	global	_flag1
                                           	global	_tmp_bat_lev
                                           	global	_bat_lev
                                           	global	_pwr_off_cnt
                                           	global	_into_low_power_cnt
                                           	global	_charge_anim_phase
                                           	global	_i
                                           	global	_led_sta_reflash_cnt
                                           	global	_cur_key_id
                                           
                                           	global STK06
                                           	global STK05
                                           	global STK04
                                           	global STK03
                                           	global STK02
                                           	global STK01
                                           	global STK00
                                           
                                           sharebank udata_ovr 0x0010
                                           STK06	res 1
                                           STK05	res 1
                                           STK04	res 1
                                           STK03	res 1
                                           STK02	res 1
                                           STK01	res 1
                                           STK00	res 1
                                           
                                           ;--------------------------------------------------------
                                           ; global definitions
                                           ;--------------------------------------------------------
                                           UD_MC30P6280_0	udata
                                           _abuf	res	1
                                           
                                           UD_MC30P6280_1	udata
                                           _statusbuf	res	1
                                           
                                           UD_MC30P6280_2	udata
                                           _flag1	res	1
                                           
                                           UD_MC30P6280_3	udata
                                           _i	res	1
                                           
                                           ;--------------------------------------------------------
                                           ; absolute symbol definitions
                                           ;--------------------------------------------------------
                                           ;--------------------------------------------------------
                                           ; compiler-defined variables
                                           ;--------------------------------------------------------
                                           UDL_MC30P6280_0	udata
                                           r0x101B	res	1
                                           r0x101A	res	1
                                           r0x1019	res	1
                                           r0x1018	res	1
                                           r0x101C	res	1
                                           r0x101D	res	1
                                           r0x101E	res	1
                                           r0x101F	res	1
                                           r0x1022	res	1
                                           r0x1021	res	1
                                           r0x1020	res	1
                                           r0x1023	res	1
                                           r0x1024	res	1
                                           _lvd_scan_cur_lvd_state_65536_22	res	1
                                           _led_refresh_sta_65536_98	res	1
                                           _int_isr_cnt_196608_114	res	1
                                           _int_isr_cnt_327680_119	res	2
                                           _int_isr_cnt_327680_122	res	1
                                           ;--------------------------------------------------------
                                           ; initialized data
                                           ;--------------------------------------------------------
                                           
                                           ID_MC30P6280_0	idata
                                           _tmp_bat_lev
                                           	db	0x05
                                           
                                           
                                           ID_MC30P6280_1	idata
                                           _bat_lev
                                           	db	0x05
                                           
                                           
                                           ID_MC30P6280_2	idata
                                           _pwr_off_cnt
                                           	db	0x00, 0x00, 0x00, 0x00
                                           
                                           
                                           ID_MC30P6280_3	idata
                                           _into_low_power_cnt
                                           	db	0x00
                                           
                                           
                                           ID_MC30P6280_4	idata
                                           _charge_anim_phase
                                           	db	0x00
                                           
                                           
                                           ID_MC30P6280_5	idata
                                           _led_sta_reflash_cnt
                                           	db	0x00
                                           
                                           
                                           ID_MC30P6280_6	idata
                                           _last_key_id
                                           	db	0x00
                                           
                                           
                                           ID_MC30P6280_7	idata
                                           _press_cnt
                                           	db	0x00
                                           
                                           
                                           ID_MC30P6280_8	idata
                                           _filter_cnt
                                           	db	0x00
                                           
                                           
                                           ID_MC30P6280_9	idata
                                           _filter_key_id
                                           	db	0x00
                                           
                                           
                                           ID_MC30P6280_10	idata
                                           _click_delay_cnt
                                           	db	0x00
                                           
                                           
                                           ID_MC30P6280_11	idata
                                           _click_cnt
                                           	db	0x00
                                           
                                           
                                           ID_MC30P6280_12	idata
                                           _cur_key_id
                                           	db	0x00
                                           
                                           
                                           ;@Allocation info for local variables in function 'C_RAM'
                                           ;@C_RAM IO_Init                   Allocated to registers ;size:2
                                           ;@C_RAM LVD_Init                  Allocated to registers ;size:2
                                           ;@C_RAM Sys_Init                  Allocated to registers ;size:2
                                           ;@C_RAM user_init                 Allocated to registers ;size:2
                                           ;@C_RAM led_all_off               Allocated to registers ;size:2
                                           ;@C_RAM led1_on                   Allocated to registers ;size:2
                                           ;@C_RAM led2_on                   Allocated to registers ;size:2
                                           ;@C_RAM led3_on                   Allocated to registers ;size:2
                                           ;@C_RAM led4_on                   Allocated to registers ;size:2
                                           ;@C_RAM led_status_handle         Allocated to registers ;size:2
                                           ;@C_RAM led_refresh               Allocated to registers ;size:2
                                           ;@C_RAM key_scan                  Allocated to registers ;size:2
                                           ;@C_RAM lvd_scan                  Allocated to registers ;size:2
                                           ;@C_RAM timer0_init               Allocated to registers ;size:2
                                           ;@C_RAM timer1_init               Allocated to registers ;size:2
                                           ;@C_RAM INDFbits                  Allocated to registers ;size:1
                                           ;@C_RAM T0CNTbits                 Allocated to registers ;size:1
                                           ;@C_RAM PCLbits                   Allocated to registers ;size:1
                                           ;@C_RAM STATUSbits                Allocated to registers ;size:1
                                           ;@C_RAM FSRbits                   Allocated to registers ;size:1
                                           ;@C_RAM P1bits                    Allocated to registers ;size:1
                                           ;@C_RAM MCRbits                   Allocated to registers ;size:1
                                           ;@C_RAM P1KBCRbits                Allocated to registers ;size:1
                                           ;@C_RAM PCLATHbits                Allocated to registers ;size:1
                                           ;@C_RAM PDCONbits                 Allocated to registers ;size:1
                                           ;@C_RAM ODCONbits                 Allocated to registers ;size:1
                                           ;@C_RAM PUCONbits                 Allocated to registers ;size:1
                                           ;@C_RAM INTEbits                  Allocated to registers ;size:1
                                           ;@C_RAM INTFbits                  Allocated to registers ;size:1
                                           ;@C_RAM T0CRbits                  Allocated to registers ;size:1
                                           ;@C_RAM DDR1bits                  Allocated to registers ;size:1
                                           ;@C_RAM TMRCRbits                 Allocated to registers ;size:1
                                           ;@C_RAM T1CRbits                  Allocated to registers ;size:1
                                           ;@C_RAM T1CNTbits                 Allocated to registers ;size:1
                                           ;@C_RAM T1LOADbits                Allocated to registers ;size:1
                                           ;@C_RAM T1DATAbits                Allocated to registers ;size:1
                                           ;@C_RAM flag2                     Allocated to registers ;size:1
                                           ;@C_RAM abuf                      Allocated to registers ;size:1
                                           ;@C_RAM statusbuf                 Allocated to registers ;size:1
                                           ;@C_RAM flag1                     Allocated to registers ;size:1
                                           ;@C_RAM tmp_bat_lev               Allocated to registers ;size:1
                                           ;@C_RAM bat_lev                   Allocated to registers ;size:1
                                           ;@C_RAM pwr_off_cnt               Allocated to registers ;size:4
                                           ;@C_RAM into_low_power_cnt        Allocated to registers ;size:1
                                           ;@C_RAM charge_anim_phase         Allocated to registers ;size:1
                                           ;@C_RAM i                         Allocated to registers ;size:1
                                           ;@C_RAM led_sta_reflash_cnt       Allocated to registers ;size:1
                                           ;@C_RAM last_key_id               Allocated to registers ;size:1
                                           ;@C_RAM press_cnt                 Allocated to registers ;size:1
                                           ;@C_RAM filter_cnt                Allocated to registers ;size:1
                                           ;@C_RAM filter_key_id             Allocated to registers ;size:1
                                           ;@C_RAM click_delay_cnt           Allocated to registers ;size:1
                                           ;@C_RAM click_cnt                 Allocated to registers ;size:1
                                           ;@C_RAM cur_key_id                Allocated to registers ;size:1
                                           ;@C_RAM INDF                      Allocated to registers ;size:1
                                           ;@C_RAM T0CNT                     Allocated to registers ;size:1
                                           ;@C_RAM PCL                       Allocated to registers ;size:1
                                           ;@C_RAM STATUS                    Allocated to registers ;size:1
                                           ;@C_RAM FSR                       Allocated to registers ;size:1
                                           ;@C_RAM P1                        Allocated to registers ;size:1
                                           ;@C_RAM MCR                       Allocated to registers ;size:1
                                           ;@C_RAM P1KBCR                    Allocated to registers ;size:1
                                           ;@C_RAM PCLATH                    Allocated to registers ;size:1
                                           ;@C_RAM PDCON                     Allocated to registers ;size:1
                                           ;@C_RAM ODCON                     Allocated to registers ;size:1
                                           ;@C_RAM PUCON                     Allocated to registers ;size:1
                                           ;@C_RAM INTE                      Allocated to registers ;size:1
                                           ;@C_RAM INTF                      Allocated to registers ;size:1
                                           ;@C_RAM T0CR                      Allocated to registers ;size:1
                                           ;@C_RAM DDR1                      Allocated to registers ;size:1
                                           ;@C_RAM TMRCR                     Allocated to registers ;size:1
                                           ;@C_RAM T1CR                      Allocated to registers ;size:1
                                           ;@C_RAM T1CNT                     Allocated to registers ;size:1
                                           ;@C_RAM T1LOAD                    Allocated to registers ;size:1
                                           ;@C_RAM T1DATA                    Allocated to registers ;size:1
                                           ;@end Allocation info for local variables in function 'C_RAM';
                                           ;@Allocation info for local variables in function 'IO_Init'
                                           ;@end Allocation info for local variables in function 'IO_Init';
                                           ;@Allocation info for local variables in function 'lvd_scan'
                                           ;@lvd_scan cur_lvd_state             Allocated to registers ;size:1
                                           ;@end Allocation info for local variables in function 'lvd_scan';
                                           ;@Allocation info for local variables in function 'lvd_scan'
                                           ;@lvd_scan cur_lvd_state             Allocated to registers ;size:1
                                           ;@end Allocation info for local variables in function 'lvd_scan';
                                           ;@Allocation info for local variables in function 'Sys_Init'
                                           ;@end Allocation info for local variables in function 'Sys_Init';
                                           ;@Allocation info for local variables in function 'delay_ms'
                                           ;@delay_ms xms                       Allocated to registers ;size:4
                                           ;@delay_ms i                         Allocated to registers r0x101C r0x101D ;size:2
                                           ;@end Allocation info for local variables in function 'delay_ms';
                                           ;@Allocation info for local variables in function 'user_init'
                                           ;@end Allocation info for local variables in function 'user_init';
                                           ;@Allocation info for local variables in function 'pen_pwr_on'
                                           ;@end Allocation info for local variables in function 'pen_pwr_on';
                                           ;@Allocation info for local variables in function 'pen_pwr_off'
                                           ;@end Allocation info for local variables in function 'pen_pwr_off';
                                           ;@Allocation info for local variables in function 'led_all_off'
                                           ;@end Allocation info for local variables in function 'led_all_off';
                                           ;@Allocation info for local variables in function 'led1_on'
                                           ;@end Allocation info for local variables in function 'led1_on';
                                           ;@Allocation info for local variables in function 'led2_on'
                                           ;@end Allocation info for local variables in function 'led2_on';
                                           ;@Allocation info for local variables in function 'led3_on'
                                           ;@end Allocation info for local variables in function 'led3_on';
                                           ;@Allocation info for local variables in function 'led4_on'
                                           ;@end Allocation info for local variables in function 'led4_on';
                                           ;@Allocation info for local variables in function 'key_scan'
                                           ;@end Allocation info for local variables in function 'key_scan';
                                           ;@Allocation info for local variables in function 'led_status_handle'
                                           ;@end Allocation info for local variables in function 'led_status_handle';
                                           ;@Allocation info for local variables in function 'led_refresh'
                                           ;@led_refresh sta                       Allocated to registers ;size:1
                                           ;@end Allocation info for local variables in function 'led_refresh';
                                           ;@Allocation info for local variables in function 'led_refresh'
                                           ;@led_refresh sta                       Allocated to registers ;size:1
                                           ;@end Allocation info for local variables in function 'led_refresh';
                                           ;@Allocation info for local variables in function 'main'
                                           ;@end Allocation info for local variables in function 'main';
                                           ;@Allocation info for local variables in function 'int_isr'
                                           ;@int_isr cnt                       Allocated to registers ;size:1
                                           ;@int_isr cnt                       Allocated to registers ;size:2
                                           ;@int_isr cnt                       Allocated to registers ;size:1
                                           ;@end Allocation info for local variables in function 'int_isr';
                                           ;@Allocation info for local variables in function 'int_isr'
                                           ;@int_isr cnt                       Allocated to registers ;size:1
                                           ;@int_isr cnt                       Allocated to registers ;size:2
                                           ;@int_isr cnt                       Allocated to registers ;size:1
                                           ;@end Allocation info for local variables in function 'int_isr';
                                           
                                           ;--------------------------------------------------------
                                           ; overlayable items in internal ram 
                                           ;--------------------------------------------------------
                                           ;	udata_ovr
                                           ;--------------------------------------------------------
                                           ; reset vector 
                                           ;--------------------------------------------------------
                                           STARTUP	code 0x0000
000000   2893     goto    0x93             	goto	_main
                                           ;--------------------------------------------------------
                                           ; interrupt and initialization code
                                           ;--------------------------------------------------------
                                           c_interrupt	code	0x8
                                           __sdcc_interrupt
                                           ;***
                                           ;  pBlock Stats: dbName = I
                                           ;***
                                           ;entry:  _int_isr	;Function start
                                           ; 0 exit points
                                           ;functions called:
                                           ;   _key_scan
                                           ;   _led_status_handle
                                           ;   _pen_pwr_off
                                           ;   _led_all_off
                                           ;   _pen_pwr_off
                                           ;   _lvd_scan
                                           ;   _led_refresh
                                           ;   _key_scan
                                           ;   _led_status_handle
                                           ;   _pen_pwr_off
                                           ;   _led_all_off
                                           ;   _pen_pwr_off
                                           ;   _lvd_scan
                                           ;   _led_refresh
                                           ;2 compiler assigned registers:
                                           ;   r0x1023
                                           ;   r0x1024
                                           ;; Starting pCode block
                                           _int_isr	;Function start
                                           ; 0 exit points
                                           ;	.line	678; "MC30P6280.c"	__endasm;
                                           	;
000008   15ae     movra   0x2e             	movra	_abuf;
000009   1103     swapar  0x3              	swapar	_STATUS;
00000a   15af     movra   0x2f             	movra	_statusbuf;
                                           	
                                           ;	.line	680; "MC30P6280.c"	if ((T0IF) && (T0IE)) {
00000b   300f     jbset   0xf, 0           	JBSET	_INTFbits,0
00000c   2872     goto    0x72             	GOTO	_00590_DS_
00000d   300e     jbset   0xe, 0           	JBSET	_INTEbits,0
00000e   2872     goto    0x72             	GOTO	_00590_DS_
                                           ;	.line	681; "MC30P6280.c"	T0IF = 0;
00000f   3c0f     bclr    0xf, 0           	BCLR	_INTFbits,0
                                           ;	.line	682; "MC30P6280.c"	T0CNT = (u8)(255 - 125); // T0 ÄżÇ°1ms˛úÉúŇ»´ÎÖĐ¶Ď
000010   0b82     movai   0x82             	MOVAI	0x82
000011   1581     movra   0x1              	MOVRA	_T0CNT
                                           ;	.line	686; "MC30P6280.c"	cnt++;
000012   19a6     incr    0x26             	INCR	_int_isr_cnt_196608_114
                                           ;;unsigned compare: left < lit(0xA=10), size=1
                                           ;	.line	687; "MC30P6280.c"	if (cnt >= 10) {
000013   0b0a     movai   0xa              	MOVAI	0x0a
000014   1226     rsubar  0x26             	RSUBAR	_int_isr_cnt_196608_114
000015   3003     jbset   0x3, 0           	JBSET	STATUS,0
000016   2871     goto    0x71             	GOTO	_00588_DS_
                                           ;;genSkipc:3291: created from rifx:013B5EFC
                                           ;	.line	689; "MC30P6280.c"	cnt = 0;
000017   1da6     clrr    0x26             	CLRR	_int_isr_cnt_196608_114
                                           ;	.line	692; "MC30P6280.c"	key_scan();
000018   21e4     call    0x1e4            	CALL	_key_scan
                                           ;	.line	694; "MC30P6280.c"	led_status_handle();
000019   210d     call    0x10d            	CALL	_led_status_handle
                                           ;	.line	696; "MC30P6280.c"	if (flag_is_dev_working) {
00001a   3330     jbset   0x30, 0x6        	JBSET	_flag1,6
00001b   2834     goto    0x34             	GOTO	_00567_DS_
                                           ;;unsigned compare: left < lit(0x7530=30000), size=4
                                           ;	.line	698; "MC30P6280.c"	if (pwr_off_cnt < (u32)5 * 60 * 1000 / 10) {
00001c   0b00     movai   0                	MOVAI	0x00
00001d   122d     rsubar  0x2d             	RSUBAR	(_pwr_off_cnt + 3)
00001e   3103     jbset   0x3, 0x2         	JBSET	STATUS,2
00001f   282a     goto    0x2a             	GOTO	_00675_DS_
000020   0b00     movai   0                	MOVAI	0x00
000021   122c     rsubar  0x2c             	RSUBAR	(_pwr_off_cnt + 2)
000022   3103     jbset   0x3, 0x2         	JBSET	STATUS,2
000023   282a     goto    0x2a             	GOTO	_00675_DS_
000024   0b75     movai   0x75             	MOVAI	0x75
000025   122b     rsubar  0x2b             	RSUBAR	(_pwr_off_cnt + 1)
000026   3103     jbset   0x3, 0x2         	JBSET	STATUS,2
000027   282a     goto    0x2a             	GOTO	_00675_DS_
000028   0b30     movai   0x30             	MOVAI	0x30
000029   122a     rsubar  0x2a             	RSUBAR	_pwr_off_cnt
                                           _00675_DS_
00002a   3403     jbclr   0x3, 0           	JBCLR	STATUS,0
00002b   2838     goto    0x38             	GOTO	_00568_DS_
                                           ;;genSkipc:3291: created from rifx:013B5EFC
                                           ;	.line	699; "MC30P6280.c"	pwr_off_cnt++;
00002c   19aa     incr    0x2a             	INCR	_pwr_off_cnt
00002d   3503     jbclr   0x3, 0x2         	JBCLR	STATUS,2
00002e   19ab     incr    0x2b             	INCR	(_pwr_off_cnt + 1)
00002f   3503     jbclr   0x3, 0x2         	JBCLR	STATUS,2
000030   19ac     incr    0x2c             	INCR	(_pwr_off_cnt + 2)
000031   3503     jbclr   0x3, 0x2         	JBCLR	STATUS,2
000032   19ad     incr    0x2d             	INCR	(_pwr_off_cnt + 3)
000033   2838     goto    0x38             	GOTO	_00568_DS_
                                           _00567_DS_
                                           ;	.line	703; "MC30P6280.c"	pwr_off_cnt = 0;
000034   1daa     clrr    0x2a             	CLRR	_pwr_off_cnt
000035   1dab     clrr    0x2b             	CLRR	(_pwr_off_cnt + 1)
000036   1dac     clrr    0x2c             	CLRR	(_pwr_off_cnt + 2)
000037   1dad     clrr    0x2d             	CLRR	(_pwr_off_cnt + 3)
                                           _00568_DS_
                                           ;	.line	730; "MC30P6280.c"	cnt++;
000038   19a7     incr    0x27             	INCR	_int_isr_cnt_327680_119
000039   3503     jbclr   0x3, 0x2         	JBCLR	STATUS,2
00003a   19a8     incr    0x28             	INCR	(_int_isr_cnt_327680_119 + 1)
                                           ;;unsigned compare: left < lit(0x764=1892), size=2
                                           ;	.line	731; "MC30P6280.c"	if (cnt >= (u16)150 * 1000 / 10) {
00003b   0b07     movai   0x7              	MOVAI	0x07
00003c   1228     rsubar  0x28             	RSUBAR	(_int_isr_cnt_327680_119 + 1)
00003d   3103     jbset   0x3, 0x2         	JBSET	STATUS,2
00003e   2841     goto    0x41             	GOTO	_00676_DS_
00003f   0b64     movai   0x64             	MOVAI	0x64
000040   1227     rsubar  0x27             	RSUBAR	_int_isr_cnt_327680_119
                                           _00676_DS_
000041   3003     jbset   0x3, 0           	JBSET	STATUS,0
000042   2850     goto    0x50             	GOTO	_00573_DS_
                                           ;;genSkipc:3291: created from rifx:013B5EFC
                                           ;	.line	734; "MC30P6280.c"	cnt = 0;
000043   1da7     clrr    0x27             	CLRR	_int_isr_cnt_327680_119
000044   1da8     clrr    0x28             	CLRR	(_int_isr_cnt_327680_119 + 1)
                                           ;	.line	736; "MC30P6280.c"	bat_lev = tmp_bat_lev;
000045   1632     movar   0x32             	MOVAR	_tmp_bat_lev
000046   15b3     movra   0x33             	MOVRA	_bat_lev
                                           ;	.line	740; "MC30P6280.c"	if (flag_is_dev_working && bat_lev == BAT_LEV_2V9) {
000047   3330     jbset   0x30, 0x6        	JBSET	_flag1,6
000048   2850     goto    0x50             	GOTO	_00573_DS_
000049   0b00     movai   0                	MOVAI	0x00
00004a   1733     orar    0x33             	ORAR	_bat_lev
00004b   3103     jbset   0x3, 0x2         	JBSET	STATUS,2
00004c   2850     goto    0x50             	GOTO	_00573_DS_
                                           ;	.line	741; "MC30P6280.c"	pen_pwr_off();           // ¶ĎżŞ±ĘÍ·µÄą©µç
00004d   226d     call    0x26d            	CALL	_pen_pwr_off
                                           ;	.line	742; "MC30P6280.c"	led_all_off();           // ąŘ±ŐËůÓĐÖ¸ĘľµĆ
00004e   2268     call    0x268            	CALL	_led_all_off
                                           ;	.line	743; "MC30P6280.c"	flag_is_dev_working = 0; // ±íĘľÉč±¸ąŘ±Ő
00004f   3f30     bclr    0x30, 0x6        	BCLR	_flag1,6
                                           _00573_DS_
                                           ;	.line	751; "MC30P6280.c"	if (CHARGE_PIN) {
000050   3186     jbset   0x6, 0x3         	JBSET	_P1bits,3
000051   2864     goto    0x64             	GOTO	_00579_DS_
                                           ;	.line	752; "MC30P6280.c"	cnt++;
000052   19a9     incr    0x29             	INCR	_int_isr_cnt_327680_122
                                           ;;unsigned compare: left < lit(0xA=10), size=1
                                           ;	.line	753; "MC30P6280.c"	if (cnt >= 10) {
000053   0b0a     movai   0xa              	MOVAI	0x0a
000054   1229     rsubar  0x29             	RSUBAR	_int_isr_cnt_327680_122
000055   3003     jbset   0x3, 0           	JBSET	STATUS,0
000056   2866     goto    0x66             	GOTO	_00580_DS_
                                           ;;genSkipc:3291: created from rifx:013B5EFC
                                           ;	.line	754; "MC30P6280.c"	cnt = 0;
000057   1da9     clrr    0x29             	CLRR	_int_isr_cnt_327680_122
                                           ;	.line	755; "MC30P6280.c"	if (0 == flag_is_in_charging) {
000058   3430     jbclr   0x30, 0          	JBCLR	_flag1,0
000059   2866     goto    0x66             	GOTO	_00580_DS_
                                           ;	.line	756; "MC30P6280.c"	pen_pwr_off(); // ¶ĎżŞ±ĘÍ·µÄą©µç
00005a   226d     call    0x26d            	CALL	_pen_pwr_off
                                           ;	.line	758; "MC30P6280.c"	flag_led_1_on = 0;
00005b   3d30     bclr    0x30, 0x2        	BCLR	_flag1,2
                                           ;	.line	759; "MC30P6280.c"	flag_led_2_on = 0;
00005c   3db0     bclr    0x30, 0x3        	BCLR	_flag1,3
                                           ;	.line	760; "MC30P6280.c"	flag_led_3_on = 0;
00005d   3e30     bclr    0x30, 0x4        	BCLR	_flag1,4
                                           ;	.line	761; "MC30P6280.c"	flag_led_4_on = 0;
00005e   3eb0     bclr    0x30, 0x5        	BCLR	_flag1,5
                                           ;	.line	762; "MC30P6280.c"	flag_is_dev_working = 0; // ±íĘľÉč±¸ąŘ±Ő
00005f   3f30     bclr    0x30, 0x6        	BCLR	_flag1,6
                                           ;	.line	764; "MC30P6280.c"	flag_is_charge_begin = 1;
000060   38b0     bset    0x30, 0x1        	BSET	_flag1,1
                                           ;	.line	765; "MC30P6280.c"	charge_anim_phase = 0;
000061   1db5     clrr    0x35             	CLRR	_charge_anim_phase
                                           ;	.line	766; "MC30P6280.c"	flag_is_in_charging = 1;
000062   3830     bset    0x30, 0          	BSET	_flag1,0
000063   2866     goto    0x66             	GOTO	_00580_DS_
                                           _00579_DS_
                                           ;	.line	773; "MC30P6280.c"	cnt = 0;
000064   1da9     clrr    0x29             	CLRR	_int_isr_cnt_327680_122
                                           ;	.line	780; "MC30P6280.c"	flag_is_in_charging = 0;
000065   3c30     bclr    0x30, 0          	BCLR	_flag1,0
                                           _00580_DS_
                                           ;	.line	786; "MC30P6280.c"	if ((CHARGE_PIN == 0) && (flag_is_dev_working == 0)) {
000066   3586     jbclr   0x6, 0x3         	JBCLR	_P1bits,3
000067   2870     goto    0x70             	GOTO	_00584_DS_
000068   3730     jbclr   0x30, 0x6        	JBCLR	_flag1,6
000069   2870     goto    0x70             	GOTO	_00584_DS_
                                           ;;unsigned compare: left < lit(0xFF=255), size=1
                                           ;	.line	787; "MC30P6280.c"	if (into_low_power_cnt < 255) {
00006a   0bff     movai   0xff             	MOVAI	0xff
00006b   1234     rsubar  0x34             	RSUBAR	_into_low_power_cnt
00006c   3403     jbclr   0x3, 0           	JBCLR	STATUS,0
00006d   2871     goto    0x71             	GOTO	_00588_DS_
                                           ;;genSkipc:3291: created from rifx:013B5EFC
                                           ;	.line	788; "MC30P6280.c"	into_low_power_cnt++;
00006e   19b4     incr    0x34             	INCR	_into_low_power_cnt
00006f   2871     goto    0x71             	GOTO	_00588_DS_
                                           _00584_DS_
                                           ;	.line	791; "MC30P6280.c"	into_low_power_cnt = 0;
000070   1db4     clrr    0x34             	CLRR	_into_low_power_cnt
                                           _00588_DS_
                                           ;	.line	796; "MC30P6280.c"	lvd_scan();
000071   22b5     call    0x2b5            	CALL	_lvd_scan
                                           _00590_DS_
                                           ;	.line	800; "MC30P6280.c"	if ((T1IF) && (T1IE)) {
000072   304b     jbset   0x4b, 0          	JBSET	_TMRCRbits,0
000073   288e     goto    0x8e             	GOTO	_00598_DS_
000074   30cb     jbset   0x4b, 0x1        	JBSET	_TMRCRbits,1
000075   288e     goto    0x8e             	GOTO	_00598_DS_
                                           ;	.line	801; "MC30P6280.c"	T1IF = 0;
000076   3c4b     bclr    0x4b, 0          	BCLR	_TMRCRbits,0
                                           ;	.line	805; "MC30P6280.c"	led_refresh();
000077   20e4     call    0xe4             	CALL	_led_refresh
                                           ;	.line	808; "MC30P6280.c"	if ((VIBRATION_SENSOR_PIN && last_vibration_sensor_lev == 0) ||
000078   3286     jbset   0x6, 0x5         	JBSET	_P1bits,5
000079   287c     goto    0x7c             	GOTO	_00596_DS_
00007a   33b0     jbset   0x30, 0x7        	JBSET	_flag1,7
00007b   2880     goto    0x80             	GOTO	_00592_DS_
                                           _00596_DS_
                                           ;	.line	809; "MC30P6280.c"	(VIBRATION_SENSOR_PIN == 0 && last_vibration_sensor_lev)) {
00007c   3686     jbclr   0x6, 0x5         	JBCLR	_P1bits,5
00007d   288e     goto    0x8e             	GOTO	_00598_DS_
00007e   33b0     jbset   0x30, 0x7        	JBSET	_flag1,7
00007f   288e     goto    0x8e             	GOTO	_00598_DS_
                                           _00592_DS_
                                           ;	.line	812; "MC30P6280.c"	pwr_off_cnt = 0;
000080   1daa     clrr    0x2a             	CLRR	_pwr_off_cnt
000081   1dab     clrr    0x2b             	CLRR	(_pwr_off_cnt + 1)
000082   1dac     clrr    0x2c             	CLRR	(_pwr_off_cnt + 2)
000083   1dad     clrr    0x2d             	CLRR	(_pwr_off_cnt + 3)
                                           ;	.line	814; "MC30P6280.c"	last_vibration_sensor_lev = VIBRATION_SENSOR_PIN;
000084   1da2     clrr    0x22             	CLRR	r0x1023
000085   3686     jbclr   0x6, 0x5         	JBCLR	_P1bits,5
000086   19a2     incr    0x22             	INCR	r0x1023
000087   1622     movar   0x22             	MOVAR	r0x1023
000088   15a3     movra   0x23             	MOVRA	r0x1024
000089   1323     rrar    0x23             	RRAR	r0x1024
00008a   3003     jbset   0x3, 0           	JBSET	STATUS,0
00008b   3fb0     bclr    0x30, 0x7        	BCLR	_flag1,7
00008c   3403     jbclr   0x3, 0           	JBCLR	STATUS,0
00008d   3bb0     bset    0x30, 0x7        	BSET	_flag1,7
                                           _00598_DS_
                                           ;	.line	825; "MC30P6280.c"	__endasm;
                                           	;
00008e   112f     swapar  0x2f             	swapar	_statusbuf;
00008f   1583     movra   0x3              	movra	_STATUS;
000090   11ae     swapr   0x2e             	swapr	_abuf;
000091   112e     swapar  0x2e             	swapar	_abuf;
                                           	
                                           END_OF_INTERRUPT
                                           ;	.line	826; "MC30P6280.c"	}
000092   000d     retie                    	RETIE	
                                           
                                           ;--------------------------------------------------------
                                           ; code
                                           ;--------------------------------------------------------
                                           code_MC30P6280	code
                                           ;***
                                           ;  pBlock Stats: dbName = M
                                           ;***
                                           ;entry:  _main	;Function start
                                           ; 2 exit points
                                           ;has an exit
                                           ;functions called:
                                           ;   _Sys_Init
                                           ;   _user_init
                                           ;   _Sys_Init
                                           ;   _user_init
                                           ;   _lvd_scan
                                           ;   _delay_ms
                                           ;   _Sys_Init
                                           ;   _user_init
                                           ;   _Sys_Init
                                           ;   _user_init
                                           ;   _lvd_scan
                                           ;   _delay_ms
                                           ;3 compiler assigned registers:
                                           ;   STK02
                                           ;   STK01
                                           ;   STK00
                                           ;; Starting pCode block
                                           _main	;Function start
                                           ; 2 exit points
                                           ;	.line	565; "MC30P6280.c"	Sys_Init();
000093   22b0     call    0x2b0            	CALL	_Sys_Init
                                           ;	.line	566; "MC30P6280.c"	user_init();
000094   2274     call    0x274            	CALL	_user_init
                                           _00524_DS_
                                           ;	.line	577; "MC30P6280.c"	if ((flag_is_dev_working && pwr_off_cnt >= (u32)5 * 60 * 1000 / 10) ||
000095   3330     jbset   0x30, 0x6        	JBSET	_flag1,6
000096   28a7     goto    0xa7             	GOTO	_00522_DS_
                                           ;;unsigned compare: left < lit(0x7530=30000), size=4
000097   0b00     movai   0                	MOVAI	0x00
000098   122d     rsubar  0x2d             	RSUBAR	(_pwr_off_cnt + 3)
000099   3103     jbset   0x3, 0x2         	JBSET	STATUS,2
00009a   28a5     goto    0xa5             	GOTO	_00559_DS_
00009b   0b00     movai   0                	MOVAI	0x00
00009c   122c     rsubar  0x2c             	RSUBAR	(_pwr_off_cnt + 2)
00009d   3103     jbset   0x3, 0x2         	JBSET	STATUS,2
00009e   28a5     goto    0xa5             	GOTO	_00559_DS_
00009f   0b75     movai   0x75             	MOVAI	0x75
0000a0   122b     rsubar  0x2b             	RSUBAR	(_pwr_off_cnt + 1)
0000a1   3103     jbset   0x3, 0x2         	JBSET	STATUS,2
0000a2   28a5     goto    0xa5             	GOTO	_00559_DS_
0000a3   0b30     movai   0x30             	MOVAI	0x30
0000a4   122a     rsubar  0x2a             	RSUBAR	_pwr_off_cnt
                                           _00559_DS_
0000a5   3403     jbclr   0x3, 0           	JBCLR	STATUS,0
0000a6   28ab     goto    0xab             	GOTO	_00514_DS_
                                           ;;genSkipc:3291: created from rifx:013B5EFC
                                           ;;unsigned compare: left < lit(0xC8=200), size=1
                                           _00522_DS_
                                           ;	.line	578; "MC30P6280.c"	into_low_power_cnt >= (u8)((u16)2000 / 10)) {
0000a7   0bc8     movai   0xc8             	MOVAI	0xc8
0000a8   1234     rsubar  0x34             	RSUBAR	_into_low_power_cnt
0000a9   3003     jbset   0x3, 0           	JBSET	STATUS,0
0000aa   2895     goto    0x95             	GOTO	_00524_DS_
                                           ;;genSkipc:3291: created from rifx:013B5EFC
                                           _00514_DS_
                                           ;	.line	593; "MC30P6280.c"	GIE = 0; // ąŘ±Ő×ÜÖĐ¶Ď
0000ab   3f8e     bclr    0xe, 0x7         	BCLR	_INTEbits,7
                                           ;	.line	595; "MC30P6280.c"	pwr_off_cnt = 0;
0000ac   1daa     clrr    0x2a             	CLRR	_pwr_off_cnt
0000ad   1dab     clrr    0x2b             	CLRR	(_pwr_off_cnt + 1)
0000ae   1dac     clrr    0x2c             	CLRR	(_pwr_off_cnt + 2)
0000af   1dad     clrr    0x2d             	CLRR	(_pwr_off_cnt + 3)
                                           ;	.line	596; "MC30P6280.c"	into_low_power_cnt = 0;
0000b0   1db4     clrr    0x34             	CLRR	_into_low_power_cnt
                                           ;	.line	599; "MC30P6280.c"	T0IE = 0;  // ĆÁ±Î timer0 ÖĐ¶Ď
0000b1   3c0e     bclr    0xe, 0           	BCLR	_INTEbits,0
                                           ;	.line	600; "MC30P6280.c"	T1IE = 0;  // ĆÁ±Î timer1 ÖĐ¶Ď
0000b2   3ccb     bclr    0x4b, 0x1        	BCLR	_TMRCRbits,1
                                           ;	.line	601; "MC30P6280.c"	T1EN = 0;  // ˛»ĘąÄÜ¶¨Ę±Ć÷
0000b3   3fcc     bclr    0x4c, 0x7        	BCLR	_T1CRbits,7
                                           ;	.line	602; "MC30P6280.c"	LVDEN = 0; // ąŘ±Ő lvd
0000b4   3c08     bclr    0x8, 0           	BCLR	_MCRbits,0
                                           ;	.line	605; "MC30P6280.c"	PUCON = 0xFF; // 0:Effective 1:invalid
0000b5   0bff     movai   0xff             	MOVAI	0xff
0000b6   158d     movra   0xd              	MOVRA	_PUCON
                                           ;	.line	606; "MC30P6280.c"	PDCON = 0xFF; // 0:Effective 1:invalid
0000b7   0bff     movai   0xff             	MOVAI	0xff
0000b8   158b     movra   0xb              	MOVRA	_PDCON
                                           ;	.line	607; "MC30P6280.c"	DDR1 = 0xFF;  // 1:input 0:output
0000b9   0bff     movai   0xff             	MOVAI	0xff
0000ba   15c6     movra   0x46             	MOVRA	_DDR1
                                           ;	.line	609; "MC30P6280.c"	PUCON &= ~(0x01 << 0);             // ÉĎŔ­ 20K Ł¬ P10(°´ĽüĽě˛â˝Ĺ)
0000bb   3c0d     bclr    0xd, 0           	BCLR	_PUCON,0
                                           ;	.line	610; "MC30P6280.c"	PUCON &= ~(0x01 << 1 | 0x01 << 2); // LEDżŘÖĆ A¶ËşÍB¶ËŁ¬´ňżŞÉĎŔ­
0000bc   0bf9     movai   0xf9             	MOVAI	0xf9
0000bd   1e8d     andra   0xd              	ANDRA	_PUCON
                                           ;	.line	616; "MC30P6280.c"	KBIF = 0; // ÇĺłýÖĐ¶Ď±ęÖľ
0000be   3c8f     bclr    0xf, 0x1         	BCLR	_INTFbits,1
                                           ;	.line	617; "MC30P6280.c"	KBIE = 1; // ĘąÄÜĽüĹĚÖĐ¶Ď
0000bf   388e     bset    0xe, 0x1         	BSET	_INTEbits,1
                                           ;	.line	621; "MC30P6280.c"	P1KBCR |= (0x01 << 0) | (0x01 << 3);
0000c0   0b09     movai   0x9              	MOVAI	0x09
0000c1   1789     orra    0x9              	ORRA	_P1KBCR
                                           ;	.line	629; "MC30P6280.c"	Stop();
0000c2   000b     sleep                    	stop	
                                           ;	.line	630; "MC30P6280.c"	Nop();
0000c3   0000     nop                      	nop	
                                           ;	.line	631; "MC30P6280.c"	Nop();
0000c4   0000     nop                      	nop	
                                           ;	.line	634; "MC30P6280.c"	P1KBCR = 0; // ąŘ±ŐËůÓĐĽüĹĚÖĐ¶Ď
0000c5   1d89     clrr    0x9              	CLRR	_P1KBCR
                                           ;	.line	635; "MC30P6280.c"	KBIE = 0;   // ąŘ±ŐĽüĹĚÖĐ¶Ď
0000c6   3c8e     bclr    0xe, 0x1         	BCLR	_INTEbits,1
                                           ;	.line	636; "MC30P6280.c"	KBIF = 0;   // Çĺłý ĽüĹĚÖĐ¶Ď ±ęÖľ
0000c7   3c8f     bclr    0xf, 0x1         	BCLR	_INTFbits,1
                                           ;	.line	643; "MC30P6280.c"	Sys_Init();
0000c8   22b0     call    0x2b0            	CALL	_Sys_Init
                                           ;	.line	644; "MC30P6280.c"	user_init();
0000c9   2274     call    0x274            	CALL	_user_init
                                           ;	.line	647; "MC30P6280.c"	for (i = 0; i < 40; i++) {
0000ca   1db1     clrr    0x31             	CLRR	_i
                                           ;;unsigned compare: left < lit(0x28=40), size=1
                                           _00527_DS_
0000cb   0b28     movai   0x28             	MOVAI	0x28
0000cc   1231     rsubar  0x31             	RSUBAR	_i
0000cd   3403     jbclr   0x3, 0           	JBCLR	STATUS,0
0000ce   28da     goto    0xda             	GOTO	_00515_DS_
                                           ;;genSkipc:3291: created from rifx:013B5EFC
                                           ;	.line	648; "MC30P6280.c"	lvd_scan();
0000cf   22b5     call    0x2b5            	CALL	_lvd_scan
                                           ;	.line	649; "MC30P6280.c"	delay_ms(1);
0000d0   0b01     movai   0x1              	MOVAI	0x01
0000d1   1594     movra   0x14             	MOVRA	STK02
0000d2   0b00     movai   0                	MOVAI	0x00
0000d3   1595     movra   0x15             	MOVRA	STK01
0000d4   0b00     movai   0                	MOVAI	0x00
0000d5   1596     movra   0x16             	MOVRA	STK00
0000d6   0b00     movai   0                	MOVAI	0x00
0000d7   2284     call    0x284            	CALL	_delay_ms
                                           ;	.line	647; "MC30P6280.c"	for (i = 0; i < 40; i++) {
0000d8   19b1     incr    0x31             	INCR	_i
0000d9   28cb     goto    0xcb             	GOTO	_00527_DS_
                                           _00515_DS_
                                           ;	.line	655; "MC30P6280.c"	bat_lev = tmp_bat_lev;
0000da   1632     movar   0x32             	MOVAR	_tmp_bat_lev
0000db   15b3     movra   0x33             	MOVRA	_bat_lev
                                           ;	.line	658; "MC30P6280.c"	if (CHARGE_PIN == 0 && bat_lev > BAT_LEV_3V0) {
0000dc   3586     jbclr   0x6, 0x3         	JBCLR	_P1bits,3
0000dd   2895     goto    0x95             	GOTO	_00524_DS_
                                           ;;swapping arguments (AOP_TYPEs 1/3)
                                           ;;unsigned compare: left >= lit(0x2=2), size=1
0000de   0b02     movai   0x2              	MOVAI	0x02
0000df   1233     rsubar  0x33             	RSUBAR	_bat_lev
0000e0   3403     jbclr   0x3, 0           	JBCLR	STATUS,0
0000e1   28ab     goto    0xab             	GOTO	_00514_DS_
                                           ;;genSkipc:3291: created from rifx:013B5EFC
                                           ;	.line	659; "MC30P6280.c"	goto label_low_power_in;
0000e2   2895     goto    0x95             	GOTO	_00524_DS_
                                           ;	.line	664; "MC30P6280.c"	}
0000e3   000c     return                   	RETURN	
                                           ; exit point of _main
                                           
                                           ;***
                                           ;  pBlock Stats: dbName = C
                                           ;***
                                           ;entry:  _led_refresh	;Function start
                                           ; 2 exit points
                                           ;has an exit
                                           ;functions called:
                                           ;   _led_all_off
                                           ;   _led1_on
                                           ;   _led2_on
                                           ;   _led3_on
                                           ;   _led4_on
                                           ;   _led_all_off
                                           ;   _led1_on
                                           ;   _led2_on
                                           ;   _led3_on
                                           ;   _led4_on
                                           ;1 compiler assigned register :
                                           ;   r0x1020
                                           ;; Starting pCode block
                                           _led_refresh	;Function start
                                           ; 2 exit points
                                           ;	.line	530; "MC30P6280.c"	led_all_off();
0000e4   2268     call    0x268            	CALL	_led_all_off
                                           ;	.line	532; "MC30P6280.c"	switch (sta) {
0000e5   1625     movar   0x25             	MOVAR	_led_refresh_sta_65536_98
0000e6   15a1     movra   0x21             	MOVRA	r0x1020
                                           ;;swapping arguments (AOP_TYPEs 1/2)
                                           ;;unsigned compare: left >= lit(0x4=4), size=1
0000e7   0b04     movai   0x4              	MOVAI	0x04
0000e8   1221     rsubar  0x21             	RSUBAR	r0x1020
0000e9   3403     jbclr   0x3, 0           	JBCLR	STATUS,0
0000ea   290c     goto    0x10c            	GOTO	_00486_DS_
                                           ;;genSkipc:3291: created from rifx:013B5EFC
0000eb   0b00     movai   0                	MOVAI	HIGH(_00509_DS_)
0000ec   158a     movra   0xa              	MOVRA	PCLATH
0000ed   0bf2     movai   0xf2             	MOVAI	_00509_DS_
0000ee   1f21     addar   0x21             	ADDAR	r0x1020
0000ef   3403     jbclr   0x3, 0           	JBCLR	STATUS,0
0000f0   198a     incr    0xa              	INCR	PCLATH
0000f1   1582     movra   0x2              	MOVRA	PCL
                                           _00509_DS_
0000f2   28f6     goto    0xf6             	GOTO	_00472_DS_
0000f3   28fc     goto    0xfc             	GOTO	_00475_DS_
0000f4   2902     goto    0x102            	GOTO	_00478_DS_
0000f5   2908     goto    0x108            	GOTO	_00481_DS_
                                           _00472_DS_
                                           ;	.line	534; "MC30P6280.c"	if (flag_led_1_on) {
0000f6   3130     jbset   0x30, 0x2        	JBSET	_flag1,2
0000f7   28f9     goto    0xf9             	GOTO	_00474_DS_
                                           ;	.line	535; "MC30P6280.c"	led1_on();
0000f8   2263     call    0x263            	CALL	_led1_on
                                           _00474_DS_
                                           ;	.line	537; "MC30P6280.c"	sta = 1;
0000f9   0b01     movai   0x1              	MOVAI	0x01
0000fa   15a5     movra   0x25             	MOVRA	_led_refresh_sta_65536_98
                                           ;	.line	538; "MC30P6280.c"	break;
0000fb   290c     goto    0x10c            	GOTO	_00486_DS_
                                           _00475_DS_
                                           ;	.line	540; "MC30P6280.c"	if (flag_led_2_on) {
0000fc   31b0     jbset   0x30, 0x3        	JBSET	_flag1,3
0000fd   28ff     goto    0xff             	GOTO	_00477_DS_
                                           ;	.line	541; "MC30P6280.c"	led2_on();
0000fe   225e     call    0x25e            	CALL	_led2_on
                                           _00477_DS_
                                           ;	.line	543; "MC30P6280.c"	sta = 2;
0000ff   0b02     movai   0x2              	MOVAI	0x02
000100   15a5     movra   0x25             	MOVRA	_led_refresh_sta_65536_98
                                           ;	.line	544; "MC30P6280.c"	break;
000101   290c     goto    0x10c            	GOTO	_00486_DS_
                                           _00478_DS_
                                           ;	.line	546; "MC30P6280.c"	if (flag_led_3_on) {
000102   3230     jbset   0x30, 0x4        	JBSET	_flag1,4
000103   2905     goto    0x105            	GOTO	_00480_DS_
                                           ;	.line	547; "MC30P6280.c"	led3_on();
000104   2259     call    0x259            	CALL	_led3_on
                                           _00480_DS_
                                           ;	.line	549; "MC30P6280.c"	sta = 3;
000105   0b03     movai   0x3              	MOVAI	0x03
000106   15a5     movra   0x25             	MOVRA	_led_refresh_sta_65536_98
                                           ;	.line	550; "MC30P6280.c"	break;
000107   290c     goto    0x10c            	GOTO	_00486_DS_
                                           _00481_DS_
                                           ;	.line	552; "MC30P6280.c"	if (flag_led_4_on) {
000108   32b0     jbset   0x30, 0x5        	JBSET	_flag1,5
000109   290b     goto    0x10b            	GOTO	_00483_DS_
                                           ;	.line	553; "MC30P6280.c"	led4_on();
00010a   2254     call    0x254            	CALL	_led4_on
                                           _00483_DS_
                                           ;	.line	555; "MC30P6280.c"	sta = 0;
00010b   1da5     clrr    0x25             	CLRR	_led_refresh_sta_65536_98
                                           _00486_DS_
                                           ;	.line	561; "MC30P6280.c"	}
00010c   000c     return                   	RETURN	
                                           ; exit point of _led_refresh
                                           
                                           ;***
                                           ;  pBlock Stats: dbName = C
                                           ;***
                                           ;entry:  _led_status_handle	;Function start
                                           ; 2 exit points
                                           ;has an exit
                                           ;1 compiler assigned register :
                                           ;   r0x1021
                                           ;; Starting pCode block
                                           _led_status_handle	;Function start
                                           ; 2 exit points
                                           ;	.line	412; "MC30P6280.c"	led_sta_reflash_cnt++;
00010d   19b6     incr    0x36             	INCR	_led_sta_reflash_cnt
                                           ;;unsigned compare: left < lit(0x32=50), size=1
                                           ;	.line	413; "MC30P6280.c"	if (led_sta_reflash_cnt >= (u8)(500 / 10)) {
00010e   0b32     movai   0x32             	MOVAI	0x32
00010f   1236     rsubar  0x36             	RSUBAR	_led_sta_reflash_cnt
000110   3003     jbset   0x3, 0           	JBSET	STATUS,0
000111   29e3     goto    0x1e3            	GOTO	_00369_DS_
                                           ;;genSkipc:3291: created from rifx:013B5EFC
                                           ;	.line	414; "MC30P6280.c"	led_sta_reflash_cnt = 0;
000112   1db6     clrr    0x36             	CLRR	_led_sta_reflash_cnt
                                           ;	.line	415; "MC30P6280.c"	if (flag_is_in_charging) {
000113   3030     jbset   0x30, 0          	JBSET	_flag1,0
000114   29ab     goto    0x1ab            	GOTO	_00365_DS_
                                           ;	.line	419; "MC30P6280.c"	if (flag_is_charge_begin) {
000115   30b0     jbset   0x30, 0x1        	JBSET	_flag1,1
000116   2955     goto    0x155            	GOTO	_00347_DS_
                                           ;;swapping arguments (AOP_TYPEs 1/3)
                                           ;;unsigned compare: left >= lit(0x3=3), size=1
                                           ;	.line	420; "MC30P6280.c"	if (bat_lev > BAT_LEV_3V2) {
000117   0b03     movai   0x3              	MOVAI	0x03
000118   1233     rsubar  0x33             	RSUBAR	_bat_lev
000119   3003     jbset   0x3, 0           	JBSET	STATUS,0
00011a   291e     goto    0x11e            	GOTO	_00330_DS_
                                           ;;genSkipc:3291: created from rifx:013B5EFC
                                           ;	.line	425; "MC30P6280.c"	flag_is_charge_begin = 0;
00011b   3cb0     bclr    0x30, 0x1        	BCLR	_flag1,1
                                           ;	.line	426; "MC30P6280.c"	charge_anim_phase = 0;
00011c   1db5     clrr    0x35             	CLRR	_charge_anim_phase
00011d   29e3     goto    0x1e3            	GOTO	_00369_DS_
                                           ;;swapping arguments (AOP_TYPEs 1/3)
                                           ;;unsigned compare: left >= lit(0x3=3), size=1
                                           _00330_DS_
                                           ;	.line	427; "MC30P6280.c"	} else if (bat_lev <= BAT_LEV_3V2 && charge_anim_phase == 0) {
00011e   0b03     movai   0x3              	MOVAI	0x03
00011f   1233     rsubar  0x33             	RSUBAR	_bat_lev
000120   3403     jbclr   0x3, 0           	JBCLR	STATUS,0
000121   292a     goto    0x12a            	GOTO	_00326_DS_
                                           ;;genSkipc:3291: created from rifx:013B5EFC
000122   0b00     movai   0                	MOVAI	0x00
000123   1735     orar    0x35             	ORAR	_charge_anim_phase
000124   3103     jbset   0x3, 0x2         	JBSET	STATUS,2
000125   292a     goto    0x12a            	GOTO	_00326_DS_
                                           ;	.line	429; "MC30P6280.c"	flag_led_1_on = 1;
000126   3930     bset    0x30, 0x2        	BSET	_flag1,2
                                           ;	.line	430; "MC30P6280.c"	charge_anim_phase = 1;
000127   0b01     movai   0x1              	MOVAI	0x01
000128   15b5     movra   0x35             	MOVRA	_charge_anim_phase
000129   29e3     goto    0x1e3            	GOTO	_00369_DS_
                                           ;;swapping arguments (AOP_TYPEs 1/3)
                                           ;;unsigned compare: left >= lit(0x4=4), size=1
                                           _00326_DS_
                                           ;	.line	431; "MC30P6280.c"	} else if (bat_lev <= BAT_LEV_3V3 && charge_anim_phase == 1) {
00012a   0b04     movai   0x4              	MOVAI	0x04
00012b   1233     rsubar  0x33             	RSUBAR	_bat_lev
00012c   3403     jbclr   0x3, 0           	JBCLR	STATUS,0
00012d   2936     goto    0x136            	GOTO	_00322_DS_
                                           ;;genSkipc:3291: created from rifx:013B5EFC
00012e   1635     movar   0x35             	MOVAR	_charge_anim_phase
00012f   0801     xorai   0x1              	XORAI	0x01
000130   3103     jbset   0x3, 0x2         	JBSET	STATUS,2
000131   2936     goto    0x136            	GOTO	_00322_DS_
                                           ;	.line	433; "MC30P6280.c"	flag_led_2_on = 1;
000132   39b0     bset    0x30, 0x3        	BSET	_flag1,3
                                           ;	.line	434; "MC30P6280.c"	charge_anim_phase = 2;
000133   0b02     movai   0x2              	MOVAI	0x02
000134   15b5     movra   0x35             	MOVRA	_charge_anim_phase
000135   29e3     goto    0x1e3            	GOTO	_00369_DS_
                                           ;;swapping arguments (AOP_TYPEs 1/3)
                                           ;;unsigned compare: left >= lit(0x5=5), size=1
                                           _00322_DS_
                                           ;	.line	435; "MC30P6280.c"	} else if (bat_lev <= BAT_LEV_3V6 && charge_anim_phase == 2) {
000136   0b05     movai   0x5              	MOVAI	0x05
000137   1233     rsubar  0x33             	RSUBAR	_bat_lev
000138   3403     jbclr   0x3, 0           	JBCLR	STATUS,0
000139   2942     goto    0x142            	GOTO	_00318_DS_
                                           ;;genSkipc:3291: created from rifx:013B5EFC
00013a   1635     movar   0x35             	MOVAR	_charge_anim_phase
00013b   0802     xorai   0x2              	XORAI	0x02
00013c   3103     jbset   0x3, 0x2         	JBSET	STATUS,2
00013d   2942     goto    0x142            	GOTO	_00318_DS_
                                           ;	.line	437; "MC30P6280.c"	flag_led_3_on = 1;
00013e   3a30     bset    0x30, 0x4        	BSET	_flag1,4
                                           ;	.line	438; "MC30P6280.c"	charge_anim_phase = 3;
00013f   0b03     movai   0x3              	MOVAI	0x03
000140   15b5     movra   0x35             	MOVRA	_charge_anim_phase
000141   29e3     goto    0x1e3            	GOTO	_00369_DS_
                                           ;;swapping arguments (AOP_TYPEs 1/3)
                                           ;;unsigned compare: left >= lit(0x6=6), size=1
                                           _00318_DS_
                                           ;	.line	439; "MC30P6280.c"	} else if (bat_lev <= BAT_LEV_4V0 && charge_anim_phase == 3) {
000142   0b06     movai   0x6              	MOVAI	0x06
000143   1233     rsubar  0x33             	RSUBAR	_bat_lev
000144   3403     jbclr   0x3, 0           	JBCLR	STATUS,0
000145   294e     goto    0x14e            	GOTO	_00314_DS_
                                           ;;genSkipc:3291: created from rifx:013B5EFC
000146   1635     movar   0x35             	MOVAR	_charge_anim_phase
000147   0803     xorai   0x3              	XORAI	0x03
000148   3103     jbset   0x3, 0x2         	JBSET	STATUS,2
000149   294e     goto    0x14e            	GOTO	_00314_DS_
                                           ;	.line	441; "MC30P6280.c"	flag_led_4_on = 1;
00014a   3ab0     bset    0x30, 0x5        	BSET	_flag1,5
                                           ;	.line	442; "MC30P6280.c"	charge_anim_phase = 4;
00014b   0b04     movai   0x4              	MOVAI	0x04
00014c   15b5     movra   0x35             	MOVRA	_charge_anim_phase
00014d   29e3     goto    0x1e3            	GOTO	_00369_DS_
                                           _00314_DS_
                                           ;	.line	444; "MC30P6280.c"	flag_is_charge_begin = 0; // ÍËłö¸ŐżŞĘĽłäµçµÄ¶Ż»­
00014e   3cb0     bclr    0x30, 0x1        	BCLR	_flag1,1
                                           ;	.line	449; "MC30P6280.c"	pwr_off_cnt = (u8)(500 / 10);
00014f   0b32     movai   0x32             	MOVAI	0x32
000150   15aa     movra   0x2a             	MOVRA	_pwr_off_cnt
000151   1dab     clrr    0x2b             	CLRR	(_pwr_off_cnt + 1)
000152   1dac     clrr    0x2c             	CLRR	(_pwr_off_cnt + 2)
000153   1dad     clrr    0x2d             	CLRR	(_pwr_off_cnt + 3)
000154   29e3     goto    0x1e3            	GOTO	_00369_DS_
                                           _00347_DS_
                                           ;	.line	453; "MC30P6280.c"	switch (bat_lev) {
000155   1633     movar   0x33             	MOVAR	_bat_lev
000156   15a0     movra   0x20             	MOVRA	r0x1021
                                           ;;unsigned compare: left < lit(0x2=2), size=1
000157   0b02     movai   0x2              	MOVAI	0x02
000158   1220     rsubar  0x20             	RSUBAR	r0x1021
000159   3003     jbset   0x3, 0           	JBSET	STATUS,0
00015a   298f     goto    0x18f            	GOTO	_00336_DS_
                                           ;;genSkipc:3291: created from rifx:013B5EFC
                                           ;;swapping arguments (AOP_TYPEs 1/2)
                                           ;;unsigned compare: left >= lit(0x6=6), size=1
00015b   0b06     movai   0x6              	MOVAI	0x06
00015c   1220     rsubar  0x20             	RSUBAR	r0x1021
00015d   3403     jbclr   0x3, 0           	JBCLR	STATUS,0
00015e   298f     goto    0x18f            	GOTO	_00336_DS_
                                           ;;genSkipc:3291: created from rifx:013B5EFC
00015f   0bfe     movai   0xfe             	MOVAI	0xfe
000160   1fa0     addra   0x20             	ADDRA	r0x1021
000161   0b01     movai   0x1              	MOVAI	HIGH(_00467_DS_)
000162   158a     movra   0xa              	MOVRA	PCLATH
000163   0b68     movai   0x68             	MOVAI	_00467_DS_
000164   1f20     addar   0x20             	ADDAR	r0x1021
000165   3403     jbclr   0x3, 0           	JBCLR	STATUS,0
000166   198a     incr    0xa              	INCR	PCLATH
000167   1582     movra   0x2              	MOVRA	PCL
                                           _00467_DS_
000168   2984     goto    0x184            	GOTO	_00335_DS_
000169   2979     goto    0x179            	GOTO	_00334_DS_
00016a   296e     goto    0x16e            	GOTO	_00333_DS_
00016b   296c     goto    0x16c            	GOTO	_00332_DS_
                                           _00332_DS_
                                           ;	.line	455; "MC30P6280.c"	flag_led_4_on = 1;
00016c   3ab0     bset    0x30, 0x5        	BSET	_flag1,5
                                           ;	.line	456; "MC30P6280.c"	break;
00016d   2999     goto    0x199            	GOTO	_00337_DS_
                                           _00333_DS_
                                           ;	.line	458; "MC30P6280.c"	flag_led_4_on = ~flag_led_4_on;
00016e   1da0     clrr    0x20             	CLRR	r0x1021
00016f   36b0     jbclr   0x30, 0x5        	JBCLR	_flag1,5
000170   19a0     incr    0x20             	INCR	r0x1021
000171   1c20     comar   0x20             	COMAR	r0x1021
000172   15a0     movra   0x20             	MOVRA	r0x1021
000173   1320     rrar    0x20             	RRAR	r0x1021
000174   3003     jbset   0x3, 0           	JBSET	STATUS,0
000175   3eb0     bclr    0x30, 0x5        	BCLR	_flag1,5
000176   3403     jbclr   0x3, 0           	JBCLR	STATUS,0
000177   3ab0     bset    0x30, 0x5        	BSET	_flag1,5
                                           ;	.line	459; "MC30P6280.c"	break;
000178   2999     goto    0x199            	GOTO	_00337_DS_
                                           _00334_DS_
                                           ;	.line	461; "MC30P6280.c"	flag_led_3_on = ~flag_led_3_on;
000179   1da0     clrr    0x20             	CLRR	r0x1021
00017a   3630     jbclr   0x30, 0x4        	JBCLR	_flag1,4
00017b   19a0     incr    0x20             	INCR	r0x1021
00017c   1c20     comar   0x20             	COMAR	r0x1021
00017d   15a0     movra   0x20             	MOVRA	r0x1021
00017e   1320     rrar    0x20             	RRAR	r0x1021
00017f   3003     jbset   0x3, 0           	JBSET	STATUS,0
000180   3e30     bclr    0x30, 0x4        	BCLR	_flag1,4
000181   3403     jbclr   0x3, 0           	JBCLR	STATUS,0
000182   3a30     bset    0x30, 0x4        	BSET	_flag1,4
                                           ;	.line	462; "MC30P6280.c"	break;
000183   2999     goto    0x199            	GOTO	_00337_DS_
                                           _00335_DS_
                                           ;	.line	464; "MC30P6280.c"	flag_led_2_on = ~flag_led_2_on;
000184   1da0     clrr    0x20             	CLRR	r0x1021
000185   35b0     jbclr   0x30, 0x3        	JBCLR	_flag1,3
000186   19a0     incr    0x20             	INCR	r0x1021
000187   1c20     comar   0x20             	COMAR	r0x1021
000188   15a0     movra   0x20             	MOVRA	r0x1021
000189   1320     rrar    0x20             	RRAR	r0x1021
00018a   3003     jbset   0x3, 0           	JBSET	STATUS,0
00018b   3db0     bclr    0x30, 0x3        	BCLR	_flag1,3
00018c   3403     jbclr   0x3, 0           	JBCLR	STATUS,0
00018d   39b0     bset    0x30, 0x3        	BSET	_flag1,3
                                           ;	.line	465; "MC30P6280.c"	break;
00018e   2999     goto    0x199            	GOTO	_00337_DS_
                                           _00336_DS_
                                           ;	.line	467; "MC30P6280.c"	flag_led_1_on = ~flag_led_1_on;
00018f   1da0     clrr    0x20             	CLRR	r0x1021
000190   3530     jbclr   0x30, 0x2        	JBCLR	_flag1,2
000191   19a0     incr    0x20             	INCR	r0x1021
000192   1c20     comar   0x20             	COMAR	r0x1021
000193   15a0     movra   0x20             	MOVRA	r0x1021
000194   1320     rrar    0x20             	RRAR	r0x1021
000195   3003     jbset   0x3, 0           	JBSET	STATUS,0
000196   3d30     bclr    0x30, 0x2        	BCLR	_flag1,2
000197   3403     jbclr   0x3, 0           	JBCLR	STATUS,0
000198   3930     bset    0x30, 0x2        	BSET	_flag1,2
                                           ;;swapping arguments (AOP_TYPEs 1/3)
                                           ;;unsigned compare: left >= lit(0x3=3), size=1
                                           _00337_DS_
                                           ;	.line	471; "MC30P6280.c"	if (bat_lev <= BAT_LEV_3V2) {
000199   0b03     movai   0x3              	MOVAI	0x03
00019a   1233     rsubar  0x33             	RSUBAR	_bat_lev
00019b   3403     jbclr   0x3, 0           	JBCLR	STATUS,0
00019c   299f     goto    0x19f            	GOTO	_00344_DS_
                                           ;;genSkipc:3291: created from rifx:013B5EFC
                                           ;	.line	472; "MC30P6280.c"	flag_led_1_on = 1; // Ö¸ĘľµĆłŁÁÁŁ¬˛»ÉÁË¸
00019d   3930     bset    0x30, 0x2        	BSET	_flag1,2
00019e   29e3     goto    0x1e3            	GOTO	_00369_DS_
                                           ;;swapping arguments (AOP_TYPEs 1/3)
                                           ;;unsigned compare: left >= lit(0x4=4), size=1
                                           _00344_DS_
                                           ;	.line	473; "MC30P6280.c"	} else if (bat_lev <= BAT_LEV_3V3) {
00019f   0b04     movai   0x4              	MOVAI	0x04
0001a0   1233     rsubar  0x33             	RSUBAR	_bat_lev
0001a1   3403     jbclr   0x3, 0           	JBCLR	STATUS,0
0001a2   29a5     goto    0x1a5            	GOTO	_00341_DS_
                                           ;;genSkipc:3291: created from rifx:013B5EFC
                                           ;	.line	474; "MC30P6280.c"	flag_led_2_on = 1; // Ö¸ĘľµĆłŁÁÁŁ¬˛»ÉÁË¸
0001a3   39b0     bset    0x30, 0x3        	BSET	_flag1,3
0001a4   29e3     goto    0x1e3            	GOTO	_00369_DS_
                                           ;;swapping arguments (AOP_TYPEs 1/3)
                                           ;;unsigned compare: left >= lit(0x5=5), size=1
                                           _00341_DS_
                                           ;	.line	475; "MC30P6280.c"	} else if (bat_lev <= BAT_LEV_3V6) {
0001a5   0b05     movai   0x5              	MOVAI	0x05
0001a6   1233     rsubar  0x33             	RSUBAR	_bat_lev
0001a7   3403     jbclr   0x3, 0           	JBCLR	STATUS,0
0001a8   29e3     goto    0x1e3            	GOTO	_00369_DS_
                                           ;;genSkipc:3291: created from rifx:013B5EFC
                                           ;	.line	476; "MC30P6280.c"	flag_led_3_on = 1; // Ö¸ĘľµĆłŁÁÁŁ¬˛»ÉÁË¸
0001a9   3a30     bset    0x30, 0x4        	BSET	_flag1,4
0001aa   29e3     goto    0x1e3            	GOTO	_00369_DS_
                                           _00365_DS_
                                           ;	.line	479; "MC30P6280.c"	} else if (flag_is_dev_working) {
0001ab   3330     jbset   0x30, 0x6        	JBSET	_flag1,6
0001ac   29df     goto    0x1df            	GOTO	_00362_DS_
                                           ;;swapping arguments (AOP_TYPEs 1/3)
                                           ;;unsigned compare: left >= lit(0x6=6), size=1
                                           ;	.line	488; "MC30P6280.c"	if (bat_lev <= BAT_LEV_4V0) {
0001ad   0b06     movai   0x6              	MOVAI	0x06
0001ae   1233     rsubar  0x33             	RSUBAR	_bat_lev
0001af   3403     jbclr   0x3, 0           	JBCLR	STATUS,0
0001b0   29b6     goto    0x1b6            	GOTO	_00359_DS_
                                           ;;genSkipc:3291: created from rifx:013B5EFC
                                           ;	.line	489; "MC30P6280.c"	flag_led_4_on = 1;
0001b1   3ab0     bset    0x30, 0x5        	BSET	_flag1,5
                                           ;	.line	490; "MC30P6280.c"	flag_led_3_on = 1;
0001b2   3a30     bset    0x30, 0x4        	BSET	_flag1,4
                                           ;	.line	491; "MC30P6280.c"	flag_led_2_on = 1;
0001b3   39b0     bset    0x30, 0x3        	BSET	_flag1,3
                                           ;	.line	492; "MC30P6280.c"	flag_led_1_on = 1;
0001b4   3930     bset    0x30, 0x2        	BSET	_flag1,2
0001b5   29e3     goto    0x1e3            	GOTO	_00369_DS_
                                           ;;swapping arguments (AOP_TYPEs 1/3)
                                           ;;unsigned compare: left >= lit(0x5=5), size=1
                                           _00359_DS_
                                           ;	.line	493; "MC30P6280.c"	} else if (bat_lev <= BAT_LEV_3V6) {
0001b6   0b05     movai   0x5              	MOVAI	0x05
0001b7   1233     rsubar  0x33             	RSUBAR	_bat_lev
0001b8   3403     jbclr   0x3, 0           	JBCLR	STATUS,0
0001b9   29bf     goto    0x1bf            	GOTO	_00356_DS_
                                           ;;genSkipc:3291: created from rifx:013B5EFC
                                           ;	.line	494; "MC30P6280.c"	flag_led_4_on = 0;
0001ba   3eb0     bclr    0x30, 0x5        	BCLR	_flag1,5
                                           ;	.line	495; "MC30P6280.c"	flag_led_3_on = 1;
0001bb   3a30     bset    0x30, 0x4        	BSET	_flag1,4
                                           ;	.line	496; "MC30P6280.c"	flag_led_2_on = 1;
0001bc   39b0     bset    0x30, 0x3        	BSET	_flag1,3
                                           ;	.line	497; "MC30P6280.c"	flag_led_1_on = 1;
0001bd   3930     bset    0x30, 0x2        	BSET	_flag1,2
0001be   29e3     goto    0x1e3            	GOTO	_00369_DS_
                                           ;;swapping arguments (AOP_TYPEs 1/3)
                                           ;;unsigned compare: left >= lit(0x4=4), size=1
                                           _00356_DS_
                                           ;	.line	498; "MC30P6280.c"	} else if (bat_lev <= BAT_LEV_3V3) {
0001bf   0b04     movai   0x4              	MOVAI	0x04
0001c0   1233     rsubar  0x33             	RSUBAR	_bat_lev
0001c1   3403     jbclr   0x3, 0           	JBCLR	STATUS,0
0001c2   29c8     goto    0x1c8            	GOTO	_00353_DS_
                                           ;;genSkipc:3291: created from rifx:013B5EFC
                                           ;	.line	499; "MC30P6280.c"	flag_led_4_on = 0;
0001c3   3eb0     bclr    0x30, 0x5        	BCLR	_flag1,5
                                           ;	.line	500; "MC30P6280.c"	flag_led_3_on = 0;
0001c4   3e30     bclr    0x30, 0x4        	BCLR	_flag1,4
                                           ;	.line	501; "MC30P6280.c"	flag_led_2_on = 1;
0001c5   39b0     bset    0x30, 0x3        	BSET	_flag1,3
                                           ;	.line	502; "MC30P6280.c"	flag_led_1_on = 1;
0001c6   3930     bset    0x30, 0x2        	BSET	_flag1,2
0001c7   29e3     goto    0x1e3            	GOTO	_00369_DS_
                                           ;;swapping arguments (AOP_TYPEs 1/3)
                                           ;;unsigned compare: left >= lit(0x3=3), size=1
                                           _00353_DS_
                                           ;	.line	503; "MC30P6280.c"	} else if (bat_lev <= BAT_LEV_3V2) {
0001c8   0b03     movai   0x3              	MOVAI	0x03
0001c9   1233     rsubar  0x33             	RSUBAR	_bat_lev
0001ca   3403     jbclr   0x3, 0           	JBCLR	STATUS,0
0001cb   29d1     goto    0x1d1            	GOTO	_00350_DS_
                                           ;;genSkipc:3291: created from rifx:013B5EFC
                                           ;	.line	504; "MC30P6280.c"	flag_led_4_on = 0;
0001cc   3eb0     bclr    0x30, 0x5        	BCLR	_flag1,5
                                           ;	.line	505; "MC30P6280.c"	flag_led_3_on = 0;
0001cd   3e30     bclr    0x30, 0x4        	BCLR	_flag1,4
                                           ;	.line	506; "MC30P6280.c"	flag_led_2_on = 0;
0001ce   3db0     bclr    0x30, 0x3        	BCLR	_flag1,3
                                           ;	.line	507; "MC30P6280.c"	flag_led_1_on = 1;
0001cf   3930     bset    0x30, 0x2        	BSET	_flag1,2
0001d0   29e3     goto    0x1e3            	GOTO	_00369_DS_
                                           _00350_DS_
                                           ;	.line	509; "MC30P6280.c"	flag_led_4_on = 0;
0001d1   3eb0     bclr    0x30, 0x5        	BCLR	_flag1,5
                                           ;	.line	510; "MC30P6280.c"	flag_led_3_on = 0;
0001d2   3e30     bclr    0x30, 0x4        	BCLR	_flag1,4
                                           ;	.line	511; "MC30P6280.c"	flag_led_2_on = 0;
0001d3   3db0     bclr    0x30, 0x3        	BCLR	_flag1,3
                                           ;	.line	513; "MC30P6280.c"	flag_led_1_on = ~flag_led_1_on;
0001d4   1da0     clrr    0x20             	CLRR	r0x1021
0001d5   3530     jbclr   0x30, 0x2        	JBCLR	_flag1,2
0001d6   19a0     incr    0x20             	INCR	r0x1021
0001d7   1c20     comar   0x20             	COMAR	r0x1021
0001d8   15a0     movra   0x20             	MOVRA	r0x1021
0001d9   1320     rrar    0x20             	RRAR	r0x1021
0001da   3003     jbset   0x3, 0           	JBSET	STATUS,0
0001db   3d30     bclr    0x30, 0x2        	BCLR	_flag1,2
0001dc   3403     jbclr   0x3, 0           	JBCLR	STATUS,0
0001dd   3930     bset    0x30, 0x2        	BSET	_flag1,2
0001de   29e3     goto    0x1e3            	GOTO	_00369_DS_
                                           _00362_DS_
                                           ;	.line	517; "MC30P6280.c"	flag_led_1_on = 0;
0001df   3d30     bclr    0x30, 0x2        	BCLR	_flag1,2
                                           ;	.line	518; "MC30P6280.c"	flag_led_2_on = 0;
0001e0   3db0     bclr    0x30, 0x3        	BCLR	_flag1,3
                                           ;	.line	519; "MC30P6280.c"	flag_led_3_on = 0;
0001e1   3e30     bclr    0x30, 0x4        	BCLR	_flag1,4
                                           ;	.line	520; "MC30P6280.c"	flag_led_4_on = 0;
0001e2   3eb0     bclr    0x30, 0x5        	BCLR	_flag1,5
                                           _00369_DS_
                                           ;	.line	523; "MC30P6280.c"	}
0001e3   000c     return                   	RETURN	
                                           ; exit point of _led_status_handle
                                           
                                           ;***
                                           ;  pBlock Stats: dbName = C
                                           ;***
                                           ;entry:  _key_scan	;Function start
                                           ; 2 exit points
                                           ;has an exit
                                           ;functions called:
                                           ;   _led_all_off
                                           ;   _pen_pwr_on
                                           ;   _pen_pwr_off
                                           ;   _led_all_off
                                           ;   _pen_pwr_on
                                           ;   _pen_pwr_off
                                           ;1 compiler assigned register :
                                           ;   r0x1022
                                           ;; Starting pCode block
                                           _key_scan	;Function start
                                           ; 2 exit points
                                           ;	.line	292; "MC30P6280.c"	if (flag_is_in_charging) {
0001e4   3030     jbset   0x30, 0          	JBSET	_flag1,0
0001e5   29ee     goto    0x1ee            	GOTO	_00218_DS_
                                           ;	.line	294; "MC30P6280.c"	last_key_id = 0;
0001e6   1db7     clrr    0x37             	CLRR	_last_key_id
                                           ;	.line	295; "MC30P6280.c"	press_cnt = 0;
0001e7   1db8     clrr    0x38             	CLRR	_press_cnt
                                           ;	.line	296; "MC30P6280.c"	filter_cnt = 0;
0001e8   1db9     clrr    0x39             	CLRR	_filter_cnt
                                           ;	.line	297; "MC30P6280.c"	filter_key_id = 0;
0001e9   1dba     clrr    0x3a             	CLRR	_filter_key_id
                                           ;	.line	298; "MC30P6280.c"	click_delay_cnt = 0;
0001ea   1dbb     clrr    0x3b             	CLRR	_click_delay_cnt
                                           ;	.line	299; "MC30P6280.c"	click_cnt = 0;
0001eb   1dbc     clrr    0x3c             	CLRR	_click_cnt
                                           ;	.line	300; "MC30P6280.c"	cur_key_id = 0;
0001ec   1dbd     clrr    0x3d             	CLRR	_cur_key_id
                                           ;	.line	301; "MC30P6280.c"	return;
0001ed   2a53     goto    0x253            	GOTO	_00250_DS_
                                           _00218_DS_
                                           ;	.line	304; "MC30P6280.c"	led_all_off();
0001ee   2268     call    0x268            	CALL	_led_all_off
                                           ;	.line	307; "MC30P6280.c"	PUCON &= ~(0x01 << 0); // ÉĎŔ­µç×č 20K
0001ef   3c0d     bclr    0xd, 0           	BCLR	_PUCON,0
                                           ;	.line	308; "MC30P6280.c"	DDR1 |= 0x01 << 0;     // ĘäČëÄŁĘ˝
0001f0   3846     bset    0x46, 0          	BSET	_DDR1,0
                                           ;	.line	315; "MC30P6280.c"	if (1 == KEY_SCAN_PIN) {
0001f1   1d9f     clrr    0x1f             	CLRR	r0x1022
0001f2   3406     jbclr   0x6, 0           	JBCLR	_P1bits,0
0001f3   199f     incr    0x1f             	INCR	r0x1022
0001f4   161f     movar   0x1f             	MOVAR	r0x1022
0001f5   0801     xorai   0x1              	XORAI	0x01
0001f6   3103     jbset   0x3, 0x2         	JBSET	STATUS,2
0001f7   29fa     goto    0x1fa            	GOTO	_00220_DS_
                                           ;	.line	316; "MC30P6280.c"	cur_key_id = KEY_ID_NONE;
0001f8   1dbd     clrr    0x3d             	CLRR	_cur_key_id
0001f9   2a01     goto    0x201            	GOTO	_00221_DS_
                                           _00220_DS_
                                           ;	.line	319; "MC30P6280.c"	cur_key_id = KEY_ID_VAILD;
0001fa   0b01     movai   0x1              	MOVAI	0x01
0001fb   15bd     movra   0x3d             	MOVRA	_cur_key_id
                                           ;	.line	323; "MC30P6280.c"	pwr_off_cnt = 0;
0001fc   1daa     clrr    0x2a             	CLRR	_pwr_off_cnt
0001fd   1dab     clrr    0x2b             	CLRR	(_pwr_off_cnt + 1)
0001fe   1dac     clrr    0x2c             	CLRR	(_pwr_off_cnt + 2)
0001ff   1dad     clrr    0x2d             	CLRR	(_pwr_off_cnt + 3)
                                           ;	.line	324; "MC30P6280.c"	into_low_power_cnt = 0;
000200   1db4     clrr    0x34             	CLRR	_into_low_power_cnt
                                           _00221_DS_
                                           ;	.line	327; "MC30P6280.c"	if (cur_key_id != filter_key_id) {
000201   163a     movar   0x3a             	MOVAR	_filter_key_id
000202   103d     xorar   0x3d             	XORAR	_cur_key_id
000203   3103     jbset   0x3, 0x2         	JBSET	STATUS,2
000204   2a06     goto    0x206            	GOTO	_00304_DS_
000205   2a0a     goto    0x20a            	GOTO	_00223_DS_
                                           _00304_DS_
                                           ;	.line	329; "MC30P6280.c"	filter_cnt = 0;
000206   1db9     clrr    0x39             	CLRR	_filter_cnt
                                           ;	.line	330; "MC30P6280.c"	filter_key_id = cur_key_id;
000207   163d     movar   0x3d             	MOVAR	_cur_key_id
000208   15ba     movra   0x3a             	MOVRA	_filter_key_id
                                           ;	.line	331; "MC30P6280.c"	return;
000209   2a53     goto    0x253            	GOTO	_00250_DS_
                                           ;;unsigned compare: left < lit(0x3=3), size=1
                                           _00223_DS_
                                           ;	.line	334; "MC30P6280.c"	if (filter_cnt < KEY_FILTER_TIMES) {
00020a   0b03     movai   0x3              	MOVAI	0x03
00020b   1239     rsubar  0x39             	RSUBAR	_filter_cnt
00020c   3403     jbclr   0x3, 0           	JBCLR	STATUS,0
00020d   2a10     goto    0x210            	GOTO	_00225_DS_
                                           ;;genSkipc:3291: created from rifx:013B5EFC
                                           ;	.line	337; "MC30P6280.c"	filter_cnt++;
00020e   19b9     incr    0x39             	INCR	_filter_cnt
                                           ;	.line	338; "MC30P6280.c"	return;
00020f   2a53     goto    0x253            	GOTO	_00250_DS_
                                           _00225_DS_
                                           ;	.line	342; "MC30P6280.c"	if (last_key_id != cur_key_id) {
000210   163d     movar   0x3d             	MOVAR	_cur_key_id
000211   1037     xorar   0x37             	XORAR	_last_key_id
000212   3103     jbset   0x3, 0x2         	JBSET	STATUS,2
000213   2a15     goto    0x215            	GOTO	_00306_DS_
000214   2a1e     goto    0x21e            	GOTO	_00248_DS_
                                           _00306_DS_
                                           ;	.line	345; "MC30P6280.c"	if (cur_key_id == KEY_ID_NONE) {
000215   0b00     movai   0                	MOVAI	0x00
000216   173d     orar    0x3d             	ORAR	_cur_key_id
000217   3103     jbset   0x3, 0x2         	JBSET	STATUS,2
000218   2a1b     goto    0x21b            	GOTO	_00227_DS_
                                           ;	.line	347; "MC30P6280.c"	click_delay_cnt = 0;
000219   1dbb     clrr    0x3b             	CLRR	_click_delay_cnt
00021a   2a51     goto    0x251            	GOTO	_00249_DS_
                                           _00227_DS_
                                           ;	.line	351; "MC30P6280.c"	press_cnt = 0; // ÖŘÖĂ°´Ľü°´ĎÂĘ±ĽäĽĆĘý
00021b   1db8     clrr    0x38             	CLRR	_press_cnt
                                           ;	.line	352; "MC30P6280.c"	click_cnt++;
00021c   19bc     incr    0x3c             	INCR	_click_cnt
00021d   2a51     goto    0x251            	GOTO	_00249_DS_
                                           _00248_DS_
                                           ;	.line	362; "MC30P6280.c"	if (cur_key_id == KEY_ID_NONE) { // Ă»ÓĐ°´Ľü°´ĎÂŁ¬ËµĂ÷ËÉĘÖ
00021e   0b00     movai   0                	MOVAI	0x00
00021f   173d     orar    0x3d             	ORAR	_cur_key_id
000220   3103     jbset   0x3, 0x2         	JBSET	STATUS,2
000221   2a4c     goto    0x24c            	GOTO	_00245_DS_
                                           ;	.line	363; "MC30P6280.c"	if (click_cnt > 0) {
000222   0b00     movai   0                	MOVAI	0x00
000223   173c     orar    0x3c             	ORAR	_click_cnt
000224   3503     jbclr   0x3, 0x2         	JBCLR	STATUS,2
000225   2a51     goto    0x251            	GOTO	_00249_DS_
                                           ;;unsigned compare: left < lit(0x1E=30), size=1
                                           ;	.line	364; "MC30P6280.c"	if (click_delay_cnt >= KEY_CLICK_DELAY_TIME) {
000226   0b1e     movai   0x1e             	MOVAI	0x1e
000227   123b     rsubar  0x3b             	RSUBAR	_click_delay_cnt
000228   3003     jbset   0x3, 0           	JBSET	STATUS,0
000229   2a46     goto    0x246            	GOTO	_00238_DS_
                                           ;;genSkipc:3291: created from rifx:013B5EFC
                                           ;	.line	365; "MC30P6280.c"	if (click_cnt == 1) {
00022a   163c     movar   0x3c             	MOVAR	_click_cnt
00022b   0801     xorai   0x1              	XORAI	0x01
00022c   3103     jbset   0x3, 0x2         	JBSET	STATUS,2
00022d   2a2f     goto    0x22f            	GOTO	_00308_DS_
00022e   2a44     goto    0x244            	GOTO	_00234_DS_
                                           _00308_DS_
                                           ;	.line	370; "MC30P6280.c"	flag_is_dev_working = ~flag_is_dev_working;
00022f   1d9f     clrr    0x1f             	CLRR	r0x1022
000230   3730     jbclr   0x30, 0x6        	JBCLR	_flag1,6
000231   199f     incr    0x1f             	INCR	r0x1022
000232   1c1f     comar   0x1f             	COMAR	r0x1022
000233   159f     movra   0x1f             	MOVRA	r0x1022
000234   131f     rrar    0x1f             	RRAR	r0x1022
000235   3003     jbset   0x3, 0           	JBSET	STATUS,0
000236   3f30     bclr    0x30, 0x6        	BCLR	_flag1,6
000237   3403     jbclr   0x3, 0           	JBCLR	STATUS,0
000238   3b30     bset    0x30, 0x6        	BSET	_flag1,6
                                           ;	.line	374; "MC30P6280.c"	if (flag_is_dev_working) {
000239   3330     jbset   0x30, 0x6        	JBSET	_flag1,6
00023a   2a3f     goto    0x23f            	GOTO	_00230_DS_
                                           ;	.line	375; "MC30P6280.c"	pen_pwr_on();
00023b   2271     call    0x271            	CALL	_pen_pwr_on
                                           ;	.line	377; "MC30P6280.c"	led_sta_reflash_cnt = (u8)(500 / 10);
00023c   0b32     movai   0x32             	MOVAI	0x32
00023d   15b6     movra   0x36             	MOVRA	_led_sta_reflash_cnt
00023e   2a44     goto    0x244            	GOTO	_00234_DS_
                                           _00230_DS_
                                           ;	.line	379; "MC30P6280.c"	pen_pwr_off();
00023f   226d     call    0x26d            	CALL	_pen_pwr_off
                                           ;	.line	380; "MC30P6280.c"	flag_led_1_on = 0;
000240   3d30     bclr    0x30, 0x2        	BCLR	_flag1,2
                                           ;	.line	381; "MC30P6280.c"	flag_led_2_on = 0;
000241   3db0     bclr    0x30, 0x3        	BCLR	_flag1,3
                                           ;	.line	382; "MC30P6280.c"	flag_led_3_on = 0;
000242   3e30     bclr    0x30, 0x4        	BCLR	_flag1,4
                                           ;	.line	383; "MC30P6280.c"	flag_led_4_on = 0;
000243   3eb0     bclr    0x30, 0x5        	BCLR	_flag1,5
                                           _00234_DS_
                                           ;	.line	387; "MC30P6280.c"	click_cnt = 0; // ´¦ŔíÍęĘÂĽţşó,ÇĺżŐÁ¬»÷µÄ´ÎĘý
000244   1dbc     clrr    0x3c             	CLRR	_click_cnt
000245   2a51     goto    0x251            	GOTO	_00249_DS_
                                           ;;unsigned compare: left < lit(0xFF=255), size=1
                                           _00238_DS_
                                           ;	.line	389; "MC30P6280.c"	if (click_delay_cnt < 255) {
000246   0bff     movai   0xff             	MOVAI	0xff
000247   123b     rsubar  0x3b             	RSUBAR	_click_delay_cnt
000248   3403     jbclr   0x3, 0           	JBCLR	STATUS,0
000249   2a51     goto    0x251            	GOTO	_00249_DS_
                                           ;;genSkipc:3291: created from rifx:013B5EFC
                                           ;	.line	391; "MC30P6280.c"	click_delay_cnt++;
00024a   19bb     incr    0x3b             	INCR	_click_delay_cnt
00024b   2a51     goto    0x251            	GOTO	_00249_DS_
                                           ;;unsigned compare: left < lit(0xFF=255), size=1
                                           _00245_DS_
                                           ;	.line	400; "MC30P6280.c"	if (press_cnt < 255) {
00024c   0bff     movai   0xff             	MOVAI	0xff
00024d   1238     rsubar  0x38             	RSUBAR	_press_cnt
00024e   3403     jbclr   0x3, 0           	JBCLR	STATUS,0
00024f   2a51     goto    0x251            	GOTO	_00249_DS_
                                           ;;genSkipc:3291: created from rifx:013B5EFC
                                           ;	.line	401; "MC30P6280.c"	press_cnt++;
000250   19b8     incr    0x38             	INCR	_press_cnt
                                           _00249_DS_
                                           ;	.line	406; "MC30P6280.c"	last_key_id = cur_key_id;
000251   163d     movar   0x3d             	MOVAR	_cur_key_id
000252   15b7     movra   0x37             	MOVRA	_last_key_id
                                           _00250_DS_
                                           ;	.line	407; "MC30P6280.c"	}
000253   000c     return                   	RETURN	
                                           ; exit point of _key_scan
                                           
                                           ;***
                                           ;  pBlock Stats: dbName = C
                                           ;***
                                           ;entry:  _led4_on	;Function start
                                           ; 2 exit points
                                           ;has an exit
                                           ;; Starting pCode block
                                           _led4_on	;Function start
                                           ; 2 exit points
                                           ;	.line	282; "MC30P6280.c"	P1 &= ~(0x01 << 0);   // P10 ĘäłöµÍµçĆ˝
000254   3c06     bclr    0x6, 0           	BCLR	_P1,0
                                           ;	.line	283; "MC30P6280.c"	DDR1 &= ~(0x01 << 0); // P10 ĘäłöÄŁĘ˝
000255   3c46     bclr    0x46, 0          	BCLR	_DDR1,0
                                           ;	.line	285; "MC30P6280.c"	P1 |= (0x01 << 2);    // P12 Ęäłö¸ßµçĆ˝
000256   3906     bset    0x6, 0x2         	BSET	_P1,2
                                           ;	.line	286; "MC30P6280.c"	DDR1 &= ~(0x01 << 2); // P12 ĘäłöÄŁĘ˝
000257   3d46     bclr    0x46, 0x2        	BCLR	_DDR1,2
                                           ;	.line	287; "MC30P6280.c"	}
000258   000c     return                   	RETURN	
                                           ; exit point of _led4_on
                                           
                                           ;***
                                           ;  pBlock Stats: dbName = C
                                           ;***
                                           ;entry:  _led3_on	;Function start
                                           ; 2 exit points
                                           ;has an exit
                                           ;; Starting pCode block
                                           _led3_on	;Function start
                                           ; 2 exit points
                                           ;	.line	270; "MC30P6280.c"	P1 &= ~(0x01 << 2);   // P12 ĘäłöµÍµçĆ˝
000259   3d06     bclr    0x6, 0x2         	BCLR	_P1,2
                                           ;	.line	271; "MC30P6280.c"	DDR1 &= ~(0x01 << 2); // P12 ĘäłöÄŁĘ˝
00025a   3d46     bclr    0x46, 0x2        	BCLR	_DDR1,2
                                           ;	.line	273; "MC30P6280.c"	P1 |= (0x01 << 0);    // P10 Ęäłö¸ßµçĆ˝
00025b   3806     bset    0x6, 0           	BSET	_P1,0
                                           ;	.line	274; "MC30P6280.c"	DDR1 &= ~(0x01 << 0); // P10 ĘäłöÄŁĘ˝
00025c   3c46     bclr    0x46, 0          	BCLR	_DDR1,0
                                           ;	.line	275; "MC30P6280.c"	}
00025d   000c     return                   	RETURN	
                                           ; exit point of _led3_on
                                           
                                           ;***
                                           ;  pBlock Stats: dbName = C
                                           ;***
                                           ;entry:  _led2_on	;Function start
                                           ; 2 exit points
                                           ;has an exit
                                           ;; Starting pCode block
                                           _led2_on	;Function start
                                           ; 2 exit points
                                           ;	.line	257; "MC30P6280.c"	P1 &= ~(0x01 << 1);   // P11 ĘäłöµÍµçĆ˝
00025e   3c86     bclr    0x6, 0x1         	BCLR	_P1,1
                                           ;	.line	258; "MC30P6280.c"	DDR1 &= ~(0x01 << 1); // P11 ĘäłöÄŁĘ˝
00025f   3cc6     bclr    0x46, 0x1        	BCLR	_DDR1,1
                                           ;	.line	261; "MC30P6280.c"	P1 |= (0x01 << 0);    // P10 Ęäłö¸ßµçĆ˝
000260   3806     bset    0x6, 0           	BSET	_P1,0
                                           ;	.line	262; "MC30P6280.c"	DDR1 &= ~(0x01 << 0); // P10 ĘäłöÄŁĘ˝
000261   3c46     bclr    0x46, 0          	BCLR	_DDR1,0
                                           ;	.line	263; "MC30P6280.c"	}
000262   000c     return                   	RETURN	
                                           ; exit point of _led2_on
                                           
                                           ;***
                                           ;  pBlock Stats: dbName = C
                                           ;***
                                           ;entry:  _led1_on	;Function start
                                           ; 2 exit points
                                           ;has an exit
                                           ;; Starting pCode block
                                           _led1_on	;Function start
                                           ; 2 exit points
                                           ;	.line	242; "MC30P6280.c"	P1 &= ~(0x01 << 0);
000263   3c06     bclr    0x6, 0           	BCLR	_P1,0
                                           ;	.line	243; "MC30P6280.c"	DDR1 &= ~(0x01 << 0); // ĘäłöÄŁĘ˝
000264   3c46     bclr    0x46, 0          	BCLR	_DDR1,0
                                           ;	.line	247; "MC30P6280.c"	P1 |= (0x01 << 1);    // P11 Ęäłö¸ßµçĆ˝
000265   3886     bset    0x6, 0x1         	BSET	_P1,1
                                           ;	.line	248; "MC30P6280.c"	DDR1 &= ~(0x01 << 1); // P11 ĘäłöÄŁĘ˝
000266   3cc6     bclr    0x46, 0x1        	BCLR	_DDR1,1
                                           ;	.line	249; "MC30P6280.c"	}
000267   000c     return                   	RETURN	
                                           ; exit point of _led1_on
                                           
                                           ;***
                                           ;  pBlock Stats: dbName = C
                                           ;***
                                           ;entry:  _led_all_off	;Function start
                                           ; 2 exit points
                                           ;has an exit
                                           ;; Starting pCode block
                                           _led_all_off	;Function start
                                           ; 2 exit points
                                           ;	.line	227; "MC30P6280.c"	PUCON |= (0x01 << 0 | 0x01 << 1 | 0x01 << 2);
000268   0b07     movai   0x7              	MOVAI	0x07
000269   178d     orra    0xd              	ORRA	_PUCON
                                           ;	.line	232; "MC30P6280.c"	(0x01 << 2);  // P12
00026a   0b07     movai   0x7              	MOVAI	0x07
00026b   17c6     orra    0x46             	ORRA	_DDR1
                                           ;	.line	234; "MC30P6280.c"	}
00026c   000c     return                   	RETURN	
                                           ; exit point of _led_all_off
                                           
                                           ;***
                                           ;  pBlock Stats: dbName = C
                                           ;***
                                           ;entry:  _pen_pwr_off	;Function start
                                           ; 2 exit points
                                           ;has an exit
                                           ;; Starting pCode block
                                           _pen_pwr_off	;Function start
                                           ; 2 exit points
                                           ;	.line	213; "MC30P6280.c"	PUCON |= (0x01 << 4); // ˛»ĘąÄÜÉĎŔ­
00026d   3a0d     bset    0xd, 0x4         	BSET	_PUCON,4
                                           ;	.line	214; "MC30P6280.c"	PDCON |= (0x01 << 4); // ˛»ĘąÄÜĎÂŔ­
00026e   3a0b     bset    0xb, 0x4         	BSET	_PDCON,4
                                           ;	.line	215; "MC30P6280.c"	DDR1 |= 0x01 << 4;    // P14 ĘäČëÄŁĘ˝
00026f   3a46     bset    0x46, 0x4        	BSET	_DDR1,4
                                           ;	.line	217; "MC30P6280.c"	}
000270   000c     return                   	RETURN	
                                           ; exit point of _pen_pwr_off
                                           
                                           ;***
                                           ;  pBlock Stats: dbName = C
                                           ;***
                                           ;entry:  _pen_pwr_on	;Function start
                                           ; 2 exit points
                                           ;has an exit
                                           ;; Starting pCode block
                                           _pen_pwr_on	;Function start
                                           ; 2 exit points
                                           ;	.line	203; "MC30P6280.c"	DDR1 &= ~(0x01 << 4); // ĘäłöÄŁĘ˝
000271   3e46     bclr    0x46, 0x4        	BCLR	_DDR1,4
                                           ;	.line	204; "MC30P6280.c"	P14D = 0;             // ĘäłöµÍµçĆ˝
000272   3e06     bclr    0x6, 0x4         	BCLR	_P1bits,4
                                           ;	.line	206; "MC30P6280.c"	}
000273   000c     return                   	RETURN	
                                           ; exit point of _pen_pwr_on
                                           
                                           ;***
                                           ;  pBlock Stats: dbName = C
                                           ;***
                                           ;entry:  _user_init	;Function start
                                           ; 2 exit points
                                           ;has an exit
                                           ;functions called:
                                           ;   _timer0_init
                                           ;   _timer1_init
                                           ;   _delay_ms
                                           ;   _timer0_init
                                           ;   _timer1_init
                                           ;   _delay_ms
                                           ;3 compiler assigned registers:
                                           ;   STK02
                                           ;   STK01
                                           ;   STK00
                                           ;; Starting pCode block
                                           _user_init	;Function start
                                           ; 2 exit points
                                           ;	.line	170; "MC30P6280.c"	PUCON &= ~(0x01 << 0); // ÉĎŔ­µç×č 20K
000274   3c0d     bclr    0xd, 0           	BCLR	_PUCON,0
                                           ;	.line	171; "MC30P6280.c"	DDR1 |= 0x01 << 0;     // ĘäČëÄŁĘ˝
000275   3846     bset    0x46, 0          	BSET	_DDR1,0
                                           ;	.line	174; "MC30P6280.c"	DDR1 |= 0x01 << 4; // P14 ĘäČëÄŁĘ˝
000276   3a46     bset    0x46, 0x4        	BSET	_DDR1,4
                                           ;	.line	177; "MC30P6280.c"	DDR1 |= 0x01 << 5; // ĘäČëÄŁĘ˝
000277   3ac6     bset    0x46, 0x5        	BSET	_DDR1,5
                                           ;	.line	180; "MC30P6280.c"	DDR1 |= 0x01 << 3;
000278   39c6     bset    0x46, 0x3        	BSET	_DDR1,3
                                           ;	.line	182; "MC30P6280.c"	timer0_init();
000279   2356     call    0x356            	CALL	_timer0_init
                                           ;	.line	183; "MC30P6280.c"	timer1_init();
00027a   2001     call    0x1              	CALL	_timer1_init
                                           ;	.line	193; "MC30P6280.c"	delay_ms(1); // µČ´ýĎµÍłÎČ¶¨
00027b   0b01     movai   0x1              	MOVAI	0x01
00027c   1594     movra   0x14             	MOVRA	STK02
00027d   0b00     movai   0                	MOVAI	0x00
00027e   1595     movra   0x15             	MOVRA	STK01
00027f   0b00     movai   0                	MOVAI	0x00
000280   1596     movra   0x16             	MOVRA	STK00
000281   0b00     movai   0                	MOVAI	0x00
000282   2284     call    0x284            	CALL	_delay_ms
                                           ;	.line	194; "MC30P6280.c"	}
000283   000c     return                   	RETURN	
                                           ; exit point of _user_init
                                           
                                           ;***
                                           ;  pBlock Stats: dbName = C
                                           ;***
                                           ;entry:  _delay_ms	;Function start
                                           ; 2 exit points
                                           ;has an exit
                                           ;11 compiler assigned registers:
                                           ;   r0x1018
                                           ;   STK00
                                           ;   r0x1019
                                           ;   STK01
                                           ;   r0x101A
                                           ;   STK02
                                           ;   r0x101B
                                           ;   r0x101C
                                           ;   r0x101D
                                           ;   r0x101E
                                           ;   r0x101F
                                           ;; Starting pCode block
                                           _delay_ms	;Function start
                                           ; 2 exit points
                                           ;	.line	154; "MC30P6280.c"	void delay_ms(u32 xms)
000284   159a     movra   0x1a             	MOVRA	r0x1018
000285   1616     movar   0x16             	MOVAR	STK00
000286   1599     movra   0x19             	MOVRA	r0x1019
000287   1615     movar   0x15             	MOVAR	STK01
000288   1598     movra   0x18             	MOVRA	r0x101A
000289   1614     movar   0x14             	MOVAR	STK02
00028a   1597     movra   0x17             	MOVRA	r0x101B
                                           _00177_DS_
                                           ;	.line	156; "MC30P6280.c"	while (xms) {
00028b   1617     movar   0x17             	MOVAR	r0x101B
00028c   1718     orar    0x18             	ORAR	r0x101A
00028d   1719     orar    0x19             	ORAR	r0x1019
00028e   171a     orar    0x1a             	ORAR	r0x1018
00028f   3503     jbclr   0x3, 0x2         	JBCLR	STATUS,2
000290   2aaf     goto    0x2af            	GOTO	_00180_DS_
                                           ;	.line	158; "MC30P6280.c"	while (i--) {
000291   0b13     movai   0x13             	MOVAI	0x13
000292   159b     movra   0x1b             	MOVRA	r0x101C
000293   0b02     movai   0x2              	MOVAI	0x02
000294   159c     movra   0x1c             	MOVRA	r0x101D
                                           _00174_DS_
000295   161b     movar   0x1b             	MOVAR	r0x101C
000296   159d     movra   0x1d             	MOVRA	r0x101E
000297   161c     movar   0x1c             	MOVAR	r0x101D
000298   159e     movra   0x1e             	MOVRA	r0x101F
000299   0bff     movai   0xff             	MOVAI	0xff
00029a   1f9b     addra   0x1b             	ADDRA	r0x101C
00029b   3003     jbset   0x3, 0           	JBSET	STATUS,0
00029c   1b9c     decr    0x1c             	DECR	r0x101D
00029d   161d     movar   0x1d             	MOVAR	r0x101E
00029e   171e     orar    0x1e             	ORAR	r0x101F
00029f   3503     jbclr   0x3, 0x2         	JBCLR	STATUS,2
0002a0   2aa3     goto    0x2a3            	GOTO	_00176_DS_
                                           ;	.line	159; "MC30P6280.c"	Nop();
0002a1   0000     nop                      	nop	
0002a2   2a95     goto    0x295            	GOTO	_00174_DS_
                                           _00176_DS_
                                           ;	.line	161; "MC30P6280.c"	xms--;
0002a3   0bff     movai   0xff             	MOVAI	0xff
0002a4   1f97     addra   0x17             	ADDRA	r0x101B
0002a5   0bff     movai   0xff             	MOVAI	0xff
0002a6   3003     jbset   0x3, 0           	JBSET	STATUS,0
0002a7   1f98     addra   0x18             	ADDRA	r0x101A
0002a8   0bff     movai   0xff             	MOVAI	0xff
0002a9   3003     jbset   0x3, 0           	JBSET	STATUS,0
0002aa   1f99     addra   0x19             	ADDRA	r0x1019
0002ab   0bff     movai   0xff             	MOVAI	0xff
0002ac   3003     jbset   0x3, 0           	JBSET	STATUS,0
0002ad   1f9a     addra   0x1a             	ADDRA	r0x1018
0002ae   2a8b     goto    0x28b            	GOTO	_00177_DS_
                                           _00180_DS_
                                           ;	.line	163; "MC30P6280.c"	}
0002af   000c     return                   	RETURN	
                                           ; exit point of _delay_ms
                                           
                                           ;***
                                           ;  pBlock Stats: dbName = C
                                           ;***
                                           ;entry:  _Sys_Init	;Function start
                                           ; 2 exit points
                                           ;has an exit
                                           ;functions called:
                                           ;   _C_RAM
                                           ;   _IO_Init
                                           ;   _C_RAM
                                           ;   _IO_Init
                                           ;; Starting pCode block
                                           _Sys_Init	;Function start
                                           ; 2 exit points
                                           ;	.line	146; "MC30P6280.c"	GIE = 0;
0002b0   3f8e     bclr    0xe, 0x7         	BCLR	_INTEbits,7
                                           ;	.line	147; "MC30P6280.c"	C_RAM();
0002b1   22fc     call    0x2fc            	CALL	_C_RAM
                                           ;	.line	148; "MC30P6280.c"	IO_Init();
0002b2   22f4     call    0x2f4            	CALL	_IO_Init
                                           ;	.line	149; "MC30P6280.c"	GIE = 1;
0002b3   3b8e     bset    0xe, 0x7         	BSET	_INTEbits,7
                                           ;	.line	150; "MC30P6280.c"	}
0002b4   000c     return                   	RETURN	
                                           ; exit point of _Sys_Init
                                           
                                           ;***
                                           ;  pBlock Stats: dbName = C
                                           ;***
                                           ;entry:  _lvd_scan	;Function start
                                           ; 2 exit points
                                           ;has an exit
                                           ;; Starting pCode block
                                           _lvd_scan	;Function start
                                           ; 2 exit points
                                           ;	.line	80; "MC30P6280.c"	LVDEN = 1; // ĘąÄÜ LVD
0002b5   3808     bset    0x8, 0           	BSET	_MCRbits,0
                                           ;	.line	82; "MC30P6280.c"	switch (cur_lvd_state) {
0002b6   1624     movar   0x24             	MOVAR	_lvd_scan_cur_lvd_state_65536_22
0002b7   3103     jbset   0x3, 0x2         	JBSET	STATUS,2
0002b8   2aba     goto    0x2ba            	GOTO	_00162_DS_
0002b9   2acd     goto    0x2cd            	GOTO	_00114_DS_
                                           _00162_DS_
0002ba   1624     movar   0x24             	MOVAR	_lvd_scan_cur_lvd_state_65536_22
0002bb   0801     xorai   0x1              	XORAI	0x01
0002bc   3103     jbset   0x3, 0x2         	JBSET	STATUS,2
0002bd   2abf     goto    0x2bf            	GOTO	_00163_DS_
0002be   2ad4     goto    0x2d4            	GOTO	_00115_DS_
                                           _00163_DS_
0002bf   1624     movar   0x24             	MOVAR	_lvd_scan_cur_lvd_state_65536_22
0002c0   0802     xorai   0x2              	XORAI	0x02
0002c1   3103     jbset   0x3, 0x2         	JBSET	STATUS,2
0002c2   2ac4     goto    0x2c4            	GOTO	_00164_DS_
0002c3   2ae2     goto    0x2e2            	GOTO	_00121_DS_
                                           _00164_DS_
0002c4   1624     movar   0x24             	MOVAR	_lvd_scan_cur_lvd_state_65536_22
0002c5   0803     xorai   0x3              	XORAI	0x03
0002c6   3103     jbset   0x3, 0x2         	JBSET	STATUS,2
0002c7   2ac9     goto    0x2c9            	GOTO	_00165_DS_
0002c8   2ae9     goto    0x2e9            	GOTO	_00122_DS_
                                           _00165_DS_
0002c9   1624     movar   0x24             	MOVAR	_lvd_scan_cur_lvd_state_65536_22
0002ca   080e     xorai   0xe              	XORAI	0x0e
0002cb   3103     jbset   0x3, 0x2         	JBSET	STATUS,2
0002cc   2af3     goto    0x2f3            	GOTO	_00128_DS_
                                           _00114_DS_
                                           ;	.line	86; "MC30P6280.c"	MCR &= ~MCR_LVD_CFG_ALL;
0002cd   0be1     movai   0xe1             	MOVAI	0xe1
0002ce   1e88     andra   0x8              	ANDRA	_MCR
                                           ;	.line	87; "MC30P6280.c"	MCR |= MCR_LVD_CFG_4V2;
0002cf   0b1e     movai   0x1e             	MOVAI	0x1e
0002d0   1788     orra    0x8              	ORRA	_MCR
                                           ;	.line	88; "MC30P6280.c"	cur_lvd_state = LVD_LEV_4V2_SWITCHING;
0002d1   0b01     movai   0x1              	MOVAI	0x01
0002d2   15a4     movra   0x24             	MOVRA	_lvd_scan_cur_lvd_state_65536_22
                                           ;	.line	89; "MC30P6280.c"	break;
0002d3   2af3     goto    0x2f3            	GOTO	_00128_DS_
                                           _00115_DS_
                                           ;	.line	91; "MC30P6280.c"	cur_lvd_state = LVD_LEV_4V2;
0002d4   0b02     movai   0x2              	MOVAI	0x02
0002d5   15a4     movra   0x24             	MOVRA	_lvd_scan_cur_lvd_state_65536_22
                                           ;	.line	92; "MC30P6280.c"	if (LVDF) {
0002d6   3288     jbset   0x8, 0x5         	JBSET	_MCRbits,5
0002d7   2adf     goto    0x2df            	GOTO	_00119_DS_
                                           ;	.line	98; "MC30P6280.c"	if (bat_lev == BAT_LEV_4V2) {
0002d8   1633     movar   0x33             	MOVAR	_bat_lev
0002d9   0806     xorai   0x6              	XORAI	0x06
0002da   3103     jbset   0x3, 0x2         	JBSET	STATUS,2
0002db   2af3     goto    0x2f3            	GOTO	_00128_DS_
                                           ;	.line	99; "MC30P6280.c"	bat_lev = BAT_LEV_4V0;
0002dc   0b05     movai   0x5              	MOVAI	0x05
0002dd   15b3     movra   0x33             	MOVRA	_bat_lev
0002de   2af3     goto    0x2f3            	GOTO	_00128_DS_
                                           _00119_DS_
                                           ;	.line	106; "MC30P6280.c"	bat_lev = BAT_LEV_4V2;
0002df   0b06     movai   0x6              	MOVAI	0x06
0002e0   15b3     movra   0x33             	MOVRA	_bat_lev
                                           ;	.line	108; "MC30P6280.c"	break;
0002e1   2af3     goto    0x2f3            	GOTO	_00128_DS_
                                           _00121_DS_
                                           ;	.line	110; "MC30P6280.c"	MCR &= ~MCR_LVD_CFG_ALL;
0002e2   0be1     movai   0xe1             	MOVAI	0xe1
0002e3   1e88     andra   0x8              	ANDRA	_MCR
                                           ;	.line	111; "MC30P6280.c"	MCR |= MCR_LVD_CFG_4V0;
0002e4   0b1c     movai   0x1c             	MOVAI	0x1c
0002e5   1788     orra    0x8              	ORRA	_MCR
                                           ;	.line	112; "MC30P6280.c"	cur_lvd_state = LVD_LEV_4V0_SWITCHING;
0002e6   0b03     movai   0x3              	MOVAI	0x03
0002e7   15a4     movra   0x24             	MOVRA	_lvd_scan_cur_lvd_state_65536_22
                                           ;	.line	113; "MC30P6280.c"	break;
0002e8   2af3     goto    0x2f3            	GOTO	_00128_DS_
                                           _00122_DS_
                                           ;	.line	115; "MC30P6280.c"	cur_lvd_state = LVD_LEV_4V0;
0002e9   0b04     movai   0x4              	MOVAI	0x04
0002ea   15a4     movra   0x24             	MOVRA	_lvd_scan_cur_lvd_state_65536_22
                                           ;	.line	116; "MC30P6280.c"	if (LVDF) {
0002eb   3288     jbset   0x8, 0x5         	JBSET	_MCRbits,5
0002ec   2af3     goto    0x2f3            	GOTO	_00128_DS_
                                           ;;unsigned compare: left < lit(0x5=5), size=1
                                           ;	.line	122; "MC30P6280.c"	if (bat_lev >= BAT_LEV_4V0) {
0002ed   0b05     movai   0x5              	MOVAI	0x05
0002ee   1233     rsubar  0x33             	RSUBAR	_bat_lev
0002ef   3003     jbset   0x3, 0           	JBSET	STATUS,0
0002f0   2af3     goto    0x2f3            	GOTO	_00128_DS_
                                           ;;genSkipc:3291: created from rifx:013B5EFC
                                           ;	.line	123; "MC30P6280.c"	bat_lev = BAT_LEV_3V6;
0002f1   0b04     movai   0x4              	MOVAI	0x04
0002f2   15b3     movra   0x33             	MOVRA	_bat_lev
                                           _00128_DS_
                                           ;	.line	136; "MC30P6280.c"	}
0002f3   000c     return                   	RETURN	
                                           ; exit point of _lvd_scan
                                           
                                           ;***
                                           ;  pBlock Stats: dbName = C
                                           ;***
                                           ;entry:  _IO_Init	;Function start
                                           ; 2 exit points
                                           ;has an exit
                                           ;; Starting pCode block
                                           _IO_Init	;Function start
                                           ; 2 exit points
                                           ;	.line	68; "MC30P6280.c"	P1 = 0x00;    // 1:input 0:output
0002f4   1d86     clrr    0x6              	CLRR	_P1
                                           ;	.line	69; "MC30P6280.c"	DDR1 = 0x00;  // 1:input 0:output
0002f5   1dc6     clrr    0x46             	CLRR	_DDR1
                                           ;	.line	70; "MC30P6280.c"	PUCON = 0xff; // 0:Effective 1:invalid
0002f6   0bff     movai   0xff             	MOVAI	0xff
0002f7   158d     movra   0xd              	MOVRA	_PUCON
                                           ;	.line	71; "MC30P6280.c"	PDCON = 0xff; // 0:Effective 1:invalid
0002f8   0bff     movai   0xff             	MOVAI	0xff
0002f9   158b     movra   0xb              	MOVRA	_PDCON
                                           ;	.line	72; "MC30P6280.c"	ODCON = 0x00; // 0:ÍĆÍěĘäłö  1:żŞÂ©Ęäłö
0002fa   1d8c     clrr    0xc              	CLRR	_ODCON
                                           ;	.line	73; "MC30P6280.c"	}
0002fb   000c     return                   	RETURN	
                                           ; exit point of _IO_Init
                                           
                                           ;***
                                           ;  pBlock Stats: dbName = C
                                           ;***
                                           ;entry:  _C_RAM	;Function start
                                           ; 2 exit points
                                           ;has an exit
                                           ;; Starting pCode block
                                           _C_RAM	;Function start
                                           ; 2 exit points
                                           ;	.line	57; "MC30P6280.c"	__endasm;
                                           	;
0002fc   0b3f     movai   0x3f             	movai	0x3F;
0002fd   1584     movra   0x4              	movra	FSR;
0002fe   0b2f     movai   0x2f             	movai	47;
0002ff   15bf     movra   0x3f             	movra	0x3F;
000300   1b84     decr    0x4              	decr	FSR;
000301   1d80     clrr    0                	clrr	INDF;
000302   1abf     djzr    0x3f             	djzr	0x3F;
000303   2b00     goto    0x300            	goto	$ - 3;
000304   1dbf     clrr    0x3f             	clrr	0x3F;
                                           	
                                           ;	.line	58; "MC30P6280.c"	}
000305   000c     return                   	RETURN	
                                           ; exit point of _C_RAM
                                           
                                           
                                           ;	code size estimation:
                                           ;	  746+    0 =   746 instructions ( 1492 byte)
                                           
                                           	end
                                           ;--------------------------------------------------------
                                           ; File Created by SN-SDCC : SinoMCU ANSI-C Compiler
                                           ; Version 2.0.0 (Dec 11 2019) (MINGW32)
                                           ; This file was generated Wed Apr 15 18:24:24 2026
                                           ;--------------------------------------------------------
                                           ; MC30 port for the RISC core
                                           ;--------------------------------------------------------
                                           ;	.file	"timer0.c"
                                           	list	p=1K6280
                                           	radix dec
                                           	include "1K6280.inc"
                                           		LIST
                                           ;mc30p6280.inc    Standard Header File, Version 1.00 by Sinomcu
                                           		NOLIST
                                           ;--------------------------------------------------------
                                           ; external declarations
                                           ;--------------------------------------------------------
                                           	extern	_C_RAM
                                           	extern	_IO_Init
                                           	extern	_LVD_Init
                                           	extern	_Sys_Init
                                           	extern	_user_init
                                           	extern	_led_all_off
                                           	extern	_led1_on
                                           	extern	_led2_on
                                           	extern	_led3_on
                                           	extern	_led4_on
                                           	extern	_led_status_handle
                                           	extern	_led_refresh
                                           	extern	_key_scan
                                           	extern	_lvd_scan
                                           	extern	_timer1_init
                                           	extern	_INDFbits
                                           	extern	_T0CNTbits
                                           	extern	_PCLbits
                                           	extern	_STATUSbits
                                           	extern	_FSRbits
                                           	extern	_P1bits
                                           	extern	_MCRbits
                                           	extern	_P1KBCRbits
                                           	extern	_PCLATHbits
                                           	extern	_PDCONbits
                                           	extern	_ODCONbits
                                           	extern	_PUCONbits
                                           	extern	_INTEbits
                                           	extern	_INTFbits
                                           	extern	_T0CRbits
                                           	extern	_DDR1bits
                                           	extern	_TMRCRbits
                                           	extern	_T1CRbits
                                           	extern	_T1CNTbits
                                           	extern	_T1LOADbits
                                           	extern	_T1DATAbits
                                           	extern	_abuf
                                           	extern	_statusbuf
                                           	extern	_flag1
                                           	extern	_flag2
                                           	extern	_INDF
                                           	extern	_T0CNT
                                           	extern	_PCL
                                           	extern	_STATUS
                                           	extern	_FSR
                                           	extern	_P1
                                           	extern	_MCR
                                           	extern	_P1KBCR
                                           	extern	_PCLATH
                                           	extern	_PDCON
                                           	extern	_ODCON
                                           	extern	_PUCON
                                           	extern	_INTE
                                           	extern	_INTF
                                           	extern	_T0CR
                                           	extern	_DDR1
                                           	extern	_TMRCR
                                           	extern	_T1CR
                                           	extern	_T1CNT
                                           	extern	_T1LOAD
                                           	extern	_T1DATA
                                           
                                           	extern STK06
                                           	extern STK05
                                           	extern STK04
                                           	extern STK03
                                           	extern STK02
                                           	extern STK01
                                           	extern STK00
                                           ;--------------------------------------------------------
                                           ; global declarations
                                           ;--------------------------------------------------------
                                           	global	_timer0_init
                                           
                                           ;--------------------------------------------------------
                                           ; global definitions
                                           ;--------------------------------------------------------
                                           ;--------------------------------------------------------
                                           ; absolute symbol definitions
                                           ;--------------------------------------------------------
                                           ;--------------------------------------------------------
                                           ; compiler-defined variables
                                           ;--------------------------------------------------------
                                           ;--------------------------------------------------------
                                           ; initialized data
                                           ;--------------------------------------------------------
                                           
                                           ;@Allocation info for local variables in function 'timer0_init'
                                           ;@timer0_init C_RAM                     Allocated to registers ;size:2
                                           ;@timer0_init IO_Init                   Allocated to registers ;size:2
                                           ;@timer0_init LVD_Init                  Allocated to registers ;size:2
                                           ;@timer0_init Sys_Init                  Allocated to registers ;size:2
                                           ;@timer0_init user_init                 Allocated to registers ;size:2
                                           ;@timer0_init led_all_off               Allocated to registers ;size:2
                                           ;@timer0_init led1_on                   Allocated to registers ;size:2
                                           ;@timer0_init led2_on                   Allocated to registers ;size:2
                                           ;@timer0_init led3_on                   Allocated to registers ;size:2
                                           ;@timer0_init led4_on                   Allocated to registers ;size:2
                                           ;@timer0_init led_status_handle         Allocated to registers ;size:2
                                           ;@timer0_init led_refresh               Allocated to registers ;size:2
                                           ;@timer0_init key_scan                  Allocated to registers ;size:2
                                           ;@timer0_init lvd_scan                  Allocated to registers ;size:2
                                           ;@timer0_init timer1_init               Allocated to registers ;size:2
                                           ;@timer0_init INDFbits                  Allocated to registers ;size:1
                                           ;@timer0_init T0CNTbits                 Allocated to registers ;size:1
                                           ;@timer0_init PCLbits                   Allocated to registers ;size:1
                                           ;@timer0_init STATUSbits                Allocated to registers ;size:1
                                           ;@timer0_init FSRbits                   Allocated to registers ;size:1
                                           ;@timer0_init P1bits                    Allocated to registers ;size:1
                                           ;@timer0_init MCRbits                   Allocated to registers ;size:1
                                           ;@timer0_init P1KBCRbits                Allocated to registers ;size:1
                                           ;@timer0_init PCLATHbits                Allocated to registers ;size:1
                                           ;@timer0_init PDCONbits                 Allocated to registers ;size:1
                                           ;@timer0_init ODCONbits                 Allocated to registers ;size:1
                                           ;@timer0_init PUCONbits                 Allocated to registers ;size:1
                                           ;@timer0_init INTEbits                  Allocated to registers ;size:1
                                           ;@timer0_init INTFbits                  Allocated to registers ;size:1
                                           ;@timer0_init T0CRbits                  Allocated to registers ;size:1
                                           ;@timer0_init DDR1bits                  Allocated to registers ;size:1
                                           ;@timer0_init TMRCRbits                 Allocated to registers ;size:1
                                           ;@timer0_init T1CRbits                  Allocated to registers ;size:1
                                           ;@timer0_init T1CNTbits                 Allocated to registers ;size:1
                                           ;@timer0_init T1LOADbits                Allocated to registers ;size:1
                                           ;@timer0_init T1DATAbits                Allocated to registers ;size:1
                                           ;@timer0_init abuf                      Allocated to registers ;size:1
                                           ;@timer0_init statusbuf                 Allocated to registers ;size:1
                                           ;@timer0_init flag1                     Allocated to registers ;size:1
                                           ;@timer0_init flag2                     Allocated to registers ;size:1
                                           ;@timer0_init INDF                      Allocated to registers ;size:1
                                           ;@timer0_init T0CNT                     Allocated to registers ;size:1
                                           ;@timer0_init PCL                       Allocated to registers ;size:1
                                           ;@timer0_init STATUS                    Allocated to registers ;size:1
                                           ;@timer0_init FSR                       Allocated to registers ;size:1
                                           ;@timer0_init P1                        Allocated to registers ;size:1
                                           ;@timer0_init MCR                       Allocated to registers ;size:1
                                           ;@timer0_init P1KBCR                    Allocated to registers ;size:1
                                           ;@timer0_init PCLATH                    Allocated to registers ;size:1
                                           ;@timer0_init PDCON                     Allocated to registers ;size:1
                                           ;@timer0_init ODCON                     Allocated to registers ;size:1
                                           ;@timer0_init PUCON                     Allocated to registers ;size:1
                                           ;@timer0_init INTE                      Allocated to registers ;size:1
                                           ;@timer0_init INTF                      Allocated to registers ;size:1
                                           ;@timer0_init T0CR                      Allocated to registers ;size:1
                                           ;@timer0_init DDR1                      Allocated to registers ;size:1
                                           ;@timer0_init TMRCR                     Allocated to registers ;size:1
                                           ;@timer0_init T1CR                      Allocated to registers ;size:1
                                           ;@timer0_init T1CNT                     Allocated to registers ;size:1
                                           ;@timer0_init T1LOAD                    Allocated to registers ;size:1
                                           ;@timer0_init T1DATA                    Allocated to registers ;size:1
                                           ;@end Allocation info for local variables in function 'timer0_init';
                                           
                                           ;--------------------------------------------------------
                                           ; overlayable items in internal ram 
                                           ;--------------------------------------------------------
                                           ;	udata_ovr
                                           ;--------------------------------------------------------
                                           ; code
                                           ;--------------------------------------------------------
                                           code_timer0	code
                                           ;***
                                           ;  pBlock Stats: dbName = C
                                           ;***
                                           ;entry:  _timer0_init	;Function start
                                           ; 2 exit points
                                           ;has an exit
                                           ;; Starting pCode block
                                           _timer0_init	;Function start
                                           ; 2 exit points
                                           ;	.line	16; "timer0.c"	T0CR = 0x05; // Ę±ÖÓÎŞCPUĘ±ÖÓŁ¬¶¨Ę±Ć÷ 64 ·ÖĆµ
000356   0b05     movai   0x5              	MOVAI	0x05
000357   15c1     movra   0x41             	MOVRA	_T0CR
                                           ;	.line	17; "timer0.c"	T0CNT = (u8)(255 - 125);
000358   0b82     movai   0x82             	MOVAI	0x82
000359   1581     movra   0x1              	MOVRA	_T0CNT
                                           ;	.line	18; "timer0.c"	T0IE = 1;
00035a   380e     bset    0xe, 0           	BSET	_INTEbits,0
                                           ;	.line	19; "timer0.c"	}
00035b   000c     return                   	RETURN	
                                           ; exit point of _timer0_init
                                           
                                           
                                           ;	code size estimation:
                                           ;	    6+    0 =     6 instructions (   12 byte)
                                           
                                           	end
                                           ;--------------------------------------------------------
                                           ; File Created by SN-SDCC : SinoMCU ANSI-C Compiler
                                           ; Version 2.0.0 (Dec 11 2019) (MINGW32)
                                           ; This file was generated Wed Apr 15 18:24:24 2026
                                           ;--------------------------------------------------------
                                           ; MC30 port for the RISC core
                                           ;--------------------------------------------------------
                                           ;	.file	"timer1.c"
                                           	list	p=1K6280
                                           	radix dec
                                           	include "1K6280.inc"
                                           		LIST
                                           ;mc30p6280.inc    Standard Header File, Version 1.00 by Sinomcu
                                           		NOLIST
                                           ;--------------------------------------------------------
                                           ; external declarations
                                           ;--------------------------------------------------------
                                           	extern	_C_RAM
                                           	extern	_IO_Init
                                           	extern	_LVD_Init
                                           	extern	_Sys_Init
                                           	extern	_user_init
                                           	extern	_led_all_off
                                           	extern	_led1_on
                                           	extern	_led2_on
                                           	extern	_led3_on
                                           	extern	_led4_on
                                           	extern	_led_status_handle
                                           	extern	_led_refresh
                                           	extern	_key_scan
                                           	extern	_lvd_scan
                                           	extern	_timer0_init
                                           	extern	_INDFbits
                                           	extern	_T0CNTbits
                                           	extern	_PCLbits
                                           	extern	_STATUSbits
                                           	extern	_FSRbits
                                           	extern	_P1bits
                                           	extern	_MCRbits
                                           	extern	_P1KBCRbits
                                           	extern	_PCLATHbits
                                           	extern	_PDCONbits
                                           	extern	_ODCONbits
                                           	extern	_PUCONbits
                                           	extern	_INTEbits
                                           	extern	_INTFbits
                                           	extern	_T0CRbits
                                           	extern	_DDR1bits
                                           	extern	_TMRCRbits
                                           	extern	_T1CRbits
                                           	extern	_T1CNTbits
                                           	extern	_T1LOADbits
                                           	extern	_T1DATAbits
                                           	extern	_abuf
                                           	extern	_statusbuf
                                           	extern	_flag1
                                           	extern	_flag2
                                           	extern	_INDF
                                           	extern	_T0CNT
                                           	extern	_PCL
                                           	extern	_STATUS
                                           	extern	_FSR
                                           	extern	_P1
                                           	extern	_MCR
                                           	extern	_P1KBCR
                                           	extern	_PCLATH
                                           	extern	_PDCON
                                           	extern	_ODCON
                                           	extern	_PUCON
                                           	extern	_INTE
                                           	extern	_INTF
                                           	extern	_T0CR
                                           	extern	_DDR1
                                           	extern	_TMRCR
                                           	extern	_T1CR
                                           	extern	_T1CNT
                                           	extern	_T1LOAD
                                           	extern	_T1DATA
                                           
                                           	extern STK06
                                           	extern STK05
                                           	extern STK04
                                           	extern STK03
                                           	extern STK02
                                           	extern STK01
                                           	extern STK00
                                           ;--------------------------------------------------------
                                           ; global declarations
                                           ;--------------------------------------------------------
                                           	global	_timer1_init
                                           
                                           ;--------------------------------------------------------
                                           ; global definitions
                                           ;--------------------------------------------------------
                                           ;--------------------------------------------------------
                                           ; absolute symbol definitions
                                           ;--------------------------------------------------------
                                           ;--------------------------------------------------------
                                           ; compiler-defined variables
                                           ;--------------------------------------------------------
                                           ;--------------------------------------------------------
                                           ; initialized data
                                           ;--------------------------------------------------------
                                           
                                           ;@Allocation info for local variables in function 'timer1_init'
                                           ;@timer1_init C_RAM                     Allocated to registers ;size:2
                                           ;@timer1_init IO_Init                   Allocated to registers ;size:2
                                           ;@timer1_init LVD_Init                  Allocated to registers ;size:2
                                           ;@timer1_init Sys_Init                  Allocated to registers ;size:2
                                           ;@timer1_init user_init                 Allocated to registers ;size:2
                                           ;@timer1_init led_all_off               Allocated to registers ;size:2
                                           ;@timer1_init led1_on                   Allocated to registers ;size:2
                                           ;@timer1_init led2_on                   Allocated to registers ;size:2
                                           ;@timer1_init led3_on                   Allocated to registers ;size:2
                                           ;@timer1_init led4_on                   Allocated to registers ;size:2
                                           ;@timer1_init led_status_handle         Allocated to registers ;size:2
                                           ;@timer1_init led_refresh               Allocated to registers ;size:2
                                           ;@timer1_init key_scan                  Allocated to registers ;size:2
                                           ;@timer1_init lvd_scan                  Allocated to registers ;size:2
                                           ;@timer1_init timer0_init               Allocated to registers ;size:2
                                           ;@timer1_init INDFbits                  Allocated to registers ;size:1
                                           ;@timer1_init T0CNTbits                 Allocated to registers ;size:1
                                           ;@timer1_init PCLbits                   Allocated to registers ;size:1
                                           ;@timer1_init STATUSbits                Allocated to registers ;size:1
                                           ;@timer1_init FSRbits                   Allocated to registers ;size:1
                                           ;@timer1_init P1bits                    Allocated to registers ;size:1
                                           ;@timer1_init MCRbits                   Allocated to registers ;size:1
                                           ;@timer1_init P1KBCRbits                Allocated to registers ;size:1
                                           ;@timer1_init PCLATHbits                Allocated to registers ;size:1
                                           ;@timer1_init PDCONbits                 Allocated to registers ;size:1
                                           ;@timer1_init ODCONbits                 Allocated to registers ;size:1
                                           ;@timer1_init PUCONbits                 Allocated to registers ;size:1
                                           ;@timer1_init INTEbits                  Allocated to registers ;size:1
                                           ;@timer1_init INTFbits                  Allocated to registers ;size:1
                                           ;@timer1_init T0CRbits                  Allocated to registers ;size:1
                                           ;@timer1_init DDR1bits                  Allocated to registers ;size:1
                                           ;@timer1_init TMRCRbits                 Allocated to registers ;size:1
                                           ;@timer1_init T1CRbits                  Allocated to registers ;size:1
                                           ;@timer1_init T1CNTbits                 Allocated to registers ;size:1
                                           ;@timer1_init T1LOADbits                Allocated to registers ;size:1
                                           ;@timer1_init T1DATAbits                Allocated to registers ;size:1
                                           ;@timer1_init abuf                      Allocated to registers ;size:1
                                           ;@timer1_init statusbuf                 Allocated to registers ;size:1
                                           ;@timer1_init flag1                     Allocated to registers ;size:1
                                           ;@timer1_init flag2                     Allocated to registers ;size:1
                                           ;@timer1_init INDF                      Allocated to registers ;size:1
                                           ;@timer1_init T0CNT                     Allocated to registers ;size:1
                                           ;@timer1_init PCL                       Allocated to registers ;size:1
                                           ;@timer1_init STATUS                    Allocated to registers ;size:1
                                           ;@timer1_init FSR                       Allocated to registers ;size:1
                                           ;@timer1_init P1                        Allocated to registers ;size:1
                                           ;@timer1_init MCR                       Allocated to registers ;size:1
                                           ;@timer1_init P1KBCR                    Allocated to registers ;size:1
                                           ;@timer1_init PCLATH                    Allocated to registers ;size:1
                                           ;@timer1_init PDCON                     Allocated to registers ;size:1
                                           ;@timer1_init ODCON                     Allocated to registers ;size:1
                                           ;@timer1_init PUCON                     Allocated to registers ;size:1
                                           ;@timer1_init INTE                      Allocated to registers ;size:1
                                           ;@timer1_init INTF                      Allocated to registers ;size:1
                                           ;@timer1_init T0CR                      Allocated to registers ;size:1
                                           ;@timer1_init DDR1                      Allocated to registers ;size:1
                                           ;@timer1_init TMRCR                     Allocated to registers ;size:1
                                           ;@timer1_init T1CR                      Allocated to registers ;size:1
                                           ;@timer1_init T1CNT                     Allocated to registers ;size:1
                                           ;@timer1_init T1LOAD                    Allocated to registers ;size:1
                                           ;@timer1_init T1DATA                    Allocated to registers ;size:1
                                           ;@end Allocation info for local variables in function 'timer1_init';
                                           
                                           ;--------------------------------------------------------
                                           ; overlayable items in internal ram 
                                           ;--------------------------------------------------------
                                           ;	udata_ovr
                                           ;--------------------------------------------------------
                                           ; code
                                           ;--------------------------------------------------------
                                           code_timer1	code
                                           ;***
                                           ;  pBlock Stats: dbName = C
                                           ;***
                                           ;entry:  _timer1_init	;Function start
                                           ; 2 exit points
                                           ;has an exit
                                           ;; Starting pCode block
                                           _timer1_init	;Function start
                                           ; 2 exit points
                                           ;	.line	6; "timer1.c"	T1CR = 0x03; // Fcpu 8·ÖĆµ
000001   0b03     movai   0x3              	MOVAI	0x03
000002   15cc     movra   0x4c             	MOVRA	_T1CR
                                           ;	.line	8; "timer1.c"	T1LOAD = 100 - 1; // 100us
000003   0b63     movai   0x63             	MOVAI	0x63
000004   15ce     movra   0x4e             	MOVRA	_T1LOAD
                                           ;	.line	9; "timer1.c"	T1EN = 1;
000005   3bcc     bset    0x4c, 0x7        	BSET	_T1CRbits,7
                                           ;	.line	10; "timer1.c"	T1IE = 1;
000006   38cb     bset    0x4b, 0x1        	BSET	_TMRCRbits,1
                                           ;	.line	11; "timer1.c"	}
000007   000c     return                   	RETURN	
                                           ; exit point of _timer1_init
                                           
                                           
                                           ;	code size estimation:
                                           ;	    7+    0 =     7 instructions (   14 byte)
                                           
                                           	end
                                           ;--------------------------------------------------------
                                           ; File Created by SN-SDCC : SinoMCU ANSI-C Compiler
                                           ; Version 2.0.0 (Dec 11 2019) (MINGW32)
                                           ; This file was generated Wed Apr 15 18:24:24 2026
                                           ;--------------------------------------------------------
                                           ; MC30 port for the RISC core
                                           ;--------------------------------------------------------
                                           ;	.file	"MC30P6280.c"
                                           	list	p=1K6280
                                           	radix dec
                                           	include "1K6280.inc"
                                           ;--------------------------------------------------------
                                           ; external declarations
                                           ;--------------------------------------------------------
                                           	extern	_LVD_Init
                                           	extern	_timer0_init
                                           	extern	_timer1_init
                                           	extern	_INDFbits
                                           	extern	_T0CNTbits
                                           	extern	_PCLbits
                                           	extern	_STATUSbits
                                           	extern	_FSRbits
                                           	extern	_P1bits
                                           	extern	_MCRbits
                                           	extern	_P1KBCRbits
                                           	extern	_PCLATHbits
                                           	extern	_PDCONbits
                                           	extern	_ODCONbits
                                           	extern	_PUCONbits
                                           	extern	_INTEbits
                                           	extern	_INTFbits
                                           	extern	_T0CRbits
                                           	extern	_DDR1bits
                                           	extern	_TMRCRbits
                                           	extern	_T1CRbits
                                           	extern	_T1CNTbits
                                           	extern	_T1LOADbits
                                           	extern	_T1DATAbits
                                           	extern	_flag2
                                           	extern	_INDF
                                           	extern	_T0CNT
                                           	extern	_PCL
                                           	extern	_STATUS
                                           	extern	_FSR
                                           	extern	_P1
                                           	extern	_MCR
                                           	extern	_P1KBCR
                                           	extern	_PCLATH
                                           	extern	_PDCON
                                           	extern	_ODCON
                                           	extern	_PUCON
                                           	extern	_INTE
                                           	extern	_INTF
                                           	extern	_T0CR
                                           	extern	_DDR1
                                           	extern	_TMRCR
                                           	extern	_T1CR
                                           	extern	_T1CNT
                                           	extern	_T1LOAD
                                           	extern	_T1DATA
                                           ;--------------------------------------------------------
                                           ; global declarations
                                           ;--------------------------------------------------------
                                           	global	_led_refresh
                                           	global	_led_status_handle
                                           	global	_key_scan
                                           	global	_led4_on
                                           	global	_led3_on
                                           	global	_led2_on
                                           	global	_led1_on
                                           	global	_led_all_off
                                           	global	_user_init
                                           	global	_Sys_Init
                                           	global	_lvd_scan
                                           	global	_IO_Init
                                           	global	_C_RAM
                                           	global	_delay_ms
                                           	global	_pen_pwr_on
                                           	global	_pen_pwr_off
                                           	global	_main
                                           	global	_int_isr
                                           	global	_abuf
                                           	global	_statusbuf
                                           	global	_flag1
                                           	global	_tmp_bat_lev
                                           	global	_bat_lev
                                           	global	_pwr_off_cnt
                                           	global	_into_low_power_cnt
                                           	global	_charge_anim_phase
                                           	global	_i
                                           	global	_led_sta_reflash_cnt
                                           	global	_cur_key_id
                                           
                                           	global STK06
                                           	global STK05
                                           	global STK04
                                           	global STK03
                                           	global STK02
                                           	global STK01
                                           	global STK00
                                           
                                           sharebank udata_ovr 0x0010
                                           STK06	res 1
                                           STK05	res 1
                                           STK04	res 1
                                           STK03	res 1
                                           STK02	res 1
                                           STK01	res 1
                                           STK00	res 1
                                           
                                           ;--------------------------------------------------------
                                           ; global definitions
                                           ;--------------------------------------------------------
                                           UD_MC30P6280_0	udata
                                           _abuf	res	1
                                           
                                           UD_MC30P6280_1	udata
                                           _statusbuf	res	1
                                           
                                           UD_MC30P6280_2	udata
                                           _flag1	res	1
                                           
                                           UD_MC30P6280_3	udata
                                           _i	res	1
                                           
                                           ;--------------------------------------------------------
                                           ; absolute symbol definitions
                                           ;--------------------------------------------------------
                                           ;--------------------------------------------------------
                                           ; compiler-defined variables
                                           ;--------------------------------------------------------
                                           UDL_MC30P6280_0	udata
                                           r0x101B	res	1
                                           r0x101A	res	1
                                           r0x1019	res	1
                                           r0x1018	res	1
                                           r0x101C	res	1
                                           r0x101D	res	1
                                           r0x101E	res	1
                                           r0x101F	res	1
                                           r0x1022	res	1
                                           r0x1021	res	1
                                           r0x1020	res	1
                                           r0x1023	res	1
                                           r0x1024	res	1
                                           _lvd_scan_cur_lvd_state_65536_22	res	1
                                           _led_refresh_sta_65536_98	res	1
                                           _int_isr_cnt_196608_114	res	1
                                           _int_isr_cnt_327680_119	res	2
                                           _int_isr_cnt_327680_122	res	1
                                           ;--------------------------------------------------------
                                           ; initialized data
                                           ;--------------------------------------------------------
                                           
                                           ID_MC30P6280_0	idata
                                           _tmp_bat_lev
                                           	db	0x05
                                           
                                           
                                           ID_MC30P6280_1	idata
                                           _bat_lev
                                           	db	0x05
                                           
                                           
                                           ID_MC30P6280_2	idata
                                           _pwr_off_cnt
                                           	db	0x00, 0x00, 0x00, 0x00
                                           
                                           
                                           ID_MC30P6280_3	idata
                                           _into_low_power_cnt
                                           	db	0x00
                                           
                                           
                                           ID_MC30P6280_4	idata
                                           _charge_anim_phase
                                           	db	0x00
                                           
                                           
                                           ID_MC30P6280_5	idata
                                           _led_sta_reflash_cnt
                                           	db	0x00
                                           
                                           
                                           ID_MC30P6280_6	idata
                                           _last_key_id
                                           	db	0x00
                                           
                                           
                                           ID_MC30P6280_7	idata
                                           _press_cnt
                                           	db	0x00
                                           
                                           
                                           ID_MC30P6280_8	idata
                                           _filter_cnt
                                           	db	0x00
                                           
                                           
                                           ID_MC30P6280_9	idata
                                           _filter_key_id
                                           	db	0x00
                                           
                                           
                                           ID_MC30P6280_10	idata
                                           _click_delay_cnt
                                           	db	0x00
                                           
                                           
                                           ID_MC30P6280_11	idata
                                           _click_cnt
                                           	db	0x00
                                           
                                           
                                           ID_MC30P6280_12	idata
                                           _cur_key_id
                                           	db	0x00
                                           
                                           
                                           ;@Allocation info for local variables in function 'C_RAM'
                                           ;@C_RAM IO_Init                   Allocated to registers ;size:2
                                           ;@C_RAM LVD_Init                  Allocated to registers ;size:2
                                           ;@C_RAM Sys_Init                  Allocated to registers ;size:2
                                           ;@C_RAM user_init                 Allocated to registers ;size:2
                                           ;@C_RAM led_all_off               Allocated to registers ;size:2
                                           ;@C_RAM led1_on                   Allocated to registers ;size:2
                                           ;@C_RAM led2_on                   Allocated to registers ;size:2
                                           ;@C_RAM led3_on                   Allocated to registers ;size:2
                                           ;@C_RAM led4_on                   Allocated to registers ;size:2
                                           ;@C_RAM led_status_handle         Allocated to registers ;size:2
                                           ;@C_RAM led_refresh               Allocated to registers ;size:2
                                           ;@C_RAM key_scan                  Allocated to registers ;size:2
                                           ;@C_RAM lvd_scan                  Allocated to registers ;size:2
                                           ;@C_RAM timer0_init               Allocated to registers ;size:2
                                           ;@C_RAM timer1_init               Allocated to registers ;size:2
                                           ;@C_RAM INDFbits                  Allocated to registers ;size:1
                                           ;@C_RAM T0CNTbits                 Allocated to registers ;size:1
                                           ;@C_RAM PCLbits                   Allocated to registers ;size:1
                                           ;@C_RAM STATUSbits                Allocated to registers ;size:1
                                           ;@C_RAM FSRbits                   Allocated to registers ;size:1
                                           ;@C_RAM P1bits                    Allocated to registers ;size:1
                                           ;@C_RAM MCRbits                   Allocated to registers ;size:1
                                           ;@C_RAM P1KBCRbits                Allocated to registers ;size:1
                                           ;@C_RAM PCLATHbits                Allocated to registers ;size:1
                                           ;@C_RAM PDCONbits                 Allocated to registers ;size:1
                                           ;@C_RAM ODCONbits                 Allocated to registers ;size:1
                                           ;@C_RAM PUCONbits                 Allocated to registers ;size:1
                                           ;@C_RAM INTEbits                  Allocated to registers ;size:1
                                           ;@C_RAM INTFbits                  Allocated to registers ;size:1
                                           ;@C_RAM T0CRbits                  Allocated to registers ;size:1
                                           ;@C_RAM DDR1bits                  Allocated to registers ;size:1
                                           ;@C_RAM TMRCRbits                 Allocated to registers ;size:1
                                           ;@C_RAM T1CRbits                  Allocated to registers ;size:1
                                           ;@C_RAM T1CNTbits                 Allocated to registers ;size:1
                                           ;@C_RAM T1LOADbits                Allocated to registers ;size:1
                                           ;@C_RAM T1DATAbits                Allocated to registers ;size:1
                                           ;@C_RAM flag2                     Allocated to registers ;size:1
                                           ;@C_RAM abuf                      Allocated to registers ;size:1
                                           ;@C_RAM statusbuf                 Allocated to registers ;size:1
                                           ;@C_RAM flag1                     Allocated to registers ;size:1
                                           ;@C_RAM tmp_bat_lev               Allocated to registers ;size:1
                                           ;@C_RAM bat_lev                   Allocated to registers ;size:1
                                           ;@C_RAM pwr_off_cnt               Allocated to registers ;size:4
                                           ;@C_RAM into_low_power_cnt        Allocated to registers ;size:1
                                           ;@C_RAM charge_anim_phase         Allocated to registers ;size:1
                                           ;@C_RAM i                         Allocated to registers ;size:1
                                           ;@C_RAM led_sta_reflash_cnt       Allocated to registers ;size:1
                                           ;@C_RAM last_key_id               Allocated to registers ;size:1
                                           ;@C_RAM press_cnt                 Allocated to registers ;size:1
                                           ;@C_RAM filter_cnt                Allocated to registers ;size:1
                                           ;@C_RAM filter_key_id             Allocated to registers ;size:1
                                           ;@C_RAM click_delay_cnt           Allocated to registers ;size:1
                                           ;@C_RAM click_cnt                 Allocated to registers ;size:1
                                           ;@C_RAM cur_key_id                Allocated to registers ;size:1
                                           ;@C_RAM INDF                      Allocated to registers ;size:1
                                           ;@C_RAM T0CNT                     Allocated to registers ;size:1
                                           ;@C_RAM PCL                       Allocated to registers ;size:1
                                           ;@C_RAM STATUS                    Allocated to registers ;size:1
                                           ;@C_RAM FSR                       Allocated to registers ;size:1
                                           ;@C_RAM P1                        Allocated to registers ;size:1
                                           ;@C_RAM MCR                       Allocated to registers ;size:1
                                           ;@C_RAM P1KBCR                    Allocated to registers ;size:1
                                           ;@C_RAM PCLATH                    Allocated to registers ;size:1
                                           ;@C_RAM PDCON                     Allocated to registers ;size:1
                                           ;@C_RAM ODCON                     Allocated to registers ;size:1
                                           ;@C_RAM PUCON                     Allocated to registers ;size:1
                                           ;@C_RAM INTE                      Allocated to registers ;size:1
                                           ;@C_RAM INTF                      Allocated to registers ;size:1
                                           ;@C_RAM T0CR                      Allocated to registers ;size:1
                                           ;@C_RAM DDR1                      Allocated to registers ;size:1
                                           ;@C_RAM TMRCR                     Allocated to registers ;size:1
                                           ;@C_RAM T1CR                      Allocated to registers ;size:1
                                           ;@C_RAM T1CNT                     Allocated to registers ;size:1
                                           ;@C_RAM T1LOAD                    Allocated to registers ;size:1
                                           ;@C_RAM T1DATA                    Allocated to registers ;size:1
                                           ;@end Allocation info for local variables in function 'C_RAM';
                                           ;@Allocation info for local variables in function 'IO_Init'
                                           ;@end Allocation info for local variables in function 'IO_Init';
                                           ;@Allocation info for local variables in function 'lvd_scan'
                                           ;@lvd_scan cur_lvd_state             Allocated to registers ;size:1
                                           ;@end Allocation info for local variables in function 'lvd_scan';
                                           ;@Allocation info for local variables in function 'lvd_scan'
                                           ;@lvd_scan cur_lvd_state             Allocated to registers ;size:1
                                           ;@end Allocation info for local variables in function 'lvd_scan';
                                           ;@Allocation info for local variables in function 'Sys_Init'
                                           ;@end Allocation info for local variables in function 'Sys_Init';
                                           ;@Allocation info for local variables in function 'delay_ms'
                                           ;@delay_ms xms                       Allocated to registers ;size:4
                                           ;@delay_ms i                         Allocated to registers r0x101C r0x101D ;size:2
                                           ;@end Allocation info for local variables in function 'delay_ms';
                                           ;@Allocation info for local variables in function 'user_init'
                                           ;@end Allocation info for local variables in function 'user_init';
                                           ;@Allocation info for local variables in function 'pen_pwr_on'
                                           ;@end Allocation info for local variables in function 'pen_pwr_on';
                                           ;@Allocation info for local variables in function 'pen_pwr_off'
                                           ;@end Allocation info for local variables in function 'pen_pwr_off';
                                           ;@Allocation info for local variables in function 'led_all_off'
                                           ;@end Allocation info for local variables in function 'led_all_off';
                                           ;@Allocation info for local variables in function 'led1_on'
                                           ;@end Allocation info for local variables in function 'led1_on';
                                           ;@Allocation info for local variables in function 'led2_on'
                                           ;@end Allocation info for local variables in function 'led2_on';
                                           ;@Allocation info for local variables in function 'led3_on'
                                           ;@end Allocation info for local variables in function 'led3_on';
                                           ;@Allocation info for local variables in function 'led4_on'
                                           ;@end Allocation info for local variables in function 'led4_on';
                                           ;@Allocation info for local variables in function 'key_scan'
                                           ;@end Allocation info for local variables in function 'key_scan';
                                           ;@Allocation info for local variables in function 'led_status_handle'
                                           ;@end Allocation info for local variables in function 'led_status_handle';
                                           ;@Allocation info for local variables in function 'led_refresh'
                                           ;@led_refresh sta                       Allocated to registers ;size:1
                                           ;@end Allocation info for local variables in function 'led_refresh';
                                           ;@Allocation info for local variables in function 'led_refresh'
                                           ;@led_refresh sta                       Allocated to registers ;size:1
                                           ;@end Allocation info for local variables in function 'led_refresh';
                                           ;@Allocation info for local variables in function 'main'
                                           ;@end Allocation info for local variables in function 'main';
                                           ;@Allocation info for local variables in function 'int_isr'
                                           ;@int_isr cnt                       Allocated to registers ;size:1
                                           ;@int_isr cnt                       Allocated to registers ;size:2
                                           ;@int_isr cnt                       Allocated to registers ;size:1
                                           ;@end Allocation info for local variables in function 'int_isr';
                                           ;@Allocation info for local variables in function 'int_isr'
                                           ;@int_isr cnt                       Allocated to registers ;size:1
                                           ;@int_isr cnt                       Allocated to registers ;size:2
                                           ;@int_isr cnt                       Allocated to registers ;size:1
                                           ;@end Allocation info for local variables in function 'int_isr';
                                           
                                           ;--------------------------------------------------------
                                           ; overlayable items in internal ram 
                                           ;--------------------------------------------------------
                                           ;	udata_ovr
                                           ;--------------------------------------------------------
                                           ; reset vector 
                                           ;--------------------------------------------------------
                                           STARTUP	code 0x0000
                                           	goto	_main
                                           ;--------------------------------------------------------
                                           ; interrupt and initialization code
                                           ;--------------------------------------------------------
                                           c_interrupt	code	0x8
                                           __sdcc_interrupt
                                           ;***
                                           ;  pBlock Stats: dbName = I
                                           ;***
                                           ;entry:  _int_isr	;Function start
                                           ; 0 exit points
                                           ;functions called:
                                           ;   _key_scan
                                           ;   _led_status_handle
                                           ;   _pen_pwr_off
                                           ;   _led_all_off
                                           ;   _pen_pwr_off
                                           ;   _lvd_scan
                                           ;   _led_refresh
                                           ;   _key_scan
                                           ;   _led_status_handle
                                           ;   _pen_pwr_off
                                           ;   _led_all_off
                                           ;   _pen_pwr_off
                                           ;   _lvd_scan
                                           ;   _led_refresh
                                           ;2 compiler assigned registers:
                                           ;   r0x1023
                                           ;   r0x1024
                                           ;; Starting pCode block
                                           _int_isr	;Function start
                                           ; 0 exit points
                                           ;	.line	678; "MC30P6280.c"	__endasm;
                                           	;
                                           	movra	_abuf;
                                           	swapar	_STATUS;
                                           	movra	_statusbuf;
                                           	
                                           ;	.line	680; "MC30P6280.c"	if ((T0IF) && (T0IE)) {
                                           	JBSET	_INTFbits,0
                                           	GOTO	_00590_DS_
                                           	JBSET	_INTEbits,0
                                           	GOTO	_00590_DS_
                                           ;	.line	681; "MC30P6280.c"	T0IF = 0;
                                           	BCLR	_INTFbits,0
                                           ;	.line	682; "MC30P6280.c"	T0CNT = (u8)(255 - 125); // T0 ÄżÇ°1ms˛úÉúŇ»´ÎÖĐ¶Ď
                                           	MOVAI	0x82
                                           	MOVRA	_T0CNT
                                           ;	.line	686; "MC30P6280.c"	cnt++;
                                           	INCR	_int_isr_cnt_196608_114
                                           ;;unsigned compare: left < lit(0xA=10), size=1
                                           ;	.line	687; "MC30P6280.c"	if (cnt >= 10) {
                                           	MOVAI	0x0a
                                           	RSUBAR	_int_isr_cnt_196608_114
                                           	JBSET	STATUS,0
                                           	GOTO	_00588_DS_
                                           ;;genSkipc:3291: created from rifx:013B5EFC
                                           ;	.line	689; "MC30P6280.c"	cnt = 0;
                                           	CLRR	_int_isr_cnt_196608_114
                                           ;	.line	692; "MC30P6280.c"	key_scan();
                                           	CALL	_key_scan
                                           ;	.line	694; "MC30P6280.c"	led_status_handle();
                                           	CALL	_led_status_handle
                                           ;	.line	696; "MC30P6280.c"	if (flag_is_dev_working) {
                                           	JBSET	_flag1,6
                                           	GOTO	_00567_DS_
                                           ;;unsigned compare: left < lit(0x7530=30000), size=4
                                           ;	.line	698; "MC30P6280.c"	if (pwr_off_cnt < (u32)5 * 60 * 1000 / 10) {
                                           	MOVAI	0x00
                                           	RSUBAR	(_pwr_off_cnt + 3)
                                           	JBSET	STATUS,2
                                           	GOTO	_00675_DS_
                                           	MOVAI	0x00
                                           	RSUBAR	(_pwr_off_cnt + 2)
                                           	JBSET	STATUS,2
                                           	GOTO	_00675_DS_
                                           	MOVAI	0x75
                                           	RSUBAR	(_pwr_off_cnt + 1)
                                           	JBSET	STATUS,2
                                           	GOTO	_00675_DS_
                                           	MOVAI	0x30
                                           	RSUBAR	_pwr_off_cnt
                                           _00675_DS_
                                           	JBCLR	STATUS,0
                                           	GOTO	_00568_DS_
                                           ;;genSkipc:3291: created from rifx:013B5EFC
                                           ;	.line	699; "MC30P6280.c"	pwr_off_cnt++;
                                           	INCR	_pwr_off_cnt
                                           	JBCLR	STATUS,2
                                           	INCR	(_pwr_off_cnt + 1)
                                           	JBCLR	STATUS,2
                                           	INCR	(_pwr_off_cnt + 2)
                                           	JBCLR	STATUS,2
                                           	INCR	(_pwr_off_cnt + 3)
                                           	GOTO	_00568_DS_
                                           _00567_DS_
                                           ;	.line	703; "MC30P6280.c"	pwr_off_cnt = 0;
                                           	CLRR	_pwr_off_cnt
                                           	CLRR	(_pwr_off_cnt + 1)
                                           	CLRR	(_pwr_off_cnt + 2)
                                           	CLRR	(_pwr_off_cnt + 3)
                                           _00568_DS_
                                           ;	.line	730; "MC30P6280.c"	cnt++;
                                           	INCR	_int_isr_cnt_327680_119
                                           	JBCLR	STATUS,2
                                           	INCR	(_int_isr_cnt_327680_119 + 1)
                                           ;;unsigned compare: left < lit(0x764=1892), size=2
                                           ;	.line	731; "MC30P6280.c"	if (cnt >= (u16)150 * 1000 / 10) {
                                           	MOVAI	0x07
                                           	RSUBAR	(_int_isr_cnt_327680_119 + 1)
                                           	JBSET	STATUS,2
                                           	GOTO	_00676_DS_
                                           	MOVAI	0x64
                                           	RSUBAR	_int_isr_cnt_327680_119
                                           _00676_DS_
                                           	JBSET	STATUS,0
                                           	GOTO	_00573_DS_
                                           ;;genSkipc:3291: created from rifx:013B5EFC
                                           ;	.line	734; "MC30P6280.c"	cnt = 0;
                                           	CLRR	_int_isr_cnt_327680_119
                                           	CLRR	(_int_isr_cnt_327680_119 + 1)
                                           ;	.line	736; "MC30P6280.c"	bat_lev = tmp_bat_lev;
                                           	MOVAR	_tmp_bat_lev
                                           	MOVRA	_bat_lev
                                           ;	.line	740; "MC30P6280.c"	if (flag_is_dev_working && bat_lev == BAT_LEV_2V9) {
                                           	JBSET	_flag1,6
                                           	GOTO	_00573_DS_
                                           	MOVAI	0x00
                                           	ORAR	_bat_lev
                                           	JBSET	STATUS,2
                                           	GOTO	_00573_DS_
                                           ;	.line	741; "MC30P6280.c"	pen_pwr_off();           // ¶ĎżŞ±ĘÍ·µÄą©µç
                                           	CALL	_pen_pwr_off
                                           ;	.line	742; "MC30P6280.c"	led_all_off();           // ąŘ±ŐËůÓĐÖ¸ĘľµĆ
                                           	CALL	_led_all_off
                                           ;	.line	743; "MC30P6280.c"	flag_is_dev_working = 0; // ±íĘľÉč±¸ąŘ±Ő
                                           	BCLR	_flag1,6
                                           _00573_DS_
                                           ;	.line	751; "MC30P6280.c"	if (CHARGE_PIN) {
                                           	JBSET	_P1bits,3
                                           	GOTO	_00579_DS_
                                           ;	.line	752; "MC30P6280.c"	cnt++;
                                           	INCR	_int_isr_cnt_327680_122
                                           ;;unsigned compare: left < lit(0xA=10), size=1
                                           ;	.line	753; "MC30P6280.c"	if (cnt >= 10) {
                                           	MOVAI	0x0a
                                           	RSUBAR	_int_isr_cnt_327680_122
                                           	JBSET	STATUS,0
                                           	GOTO	_00580_DS_
                                           ;;genSkipc:3291: created from rifx:013B5EFC
                                           ;	.line	754; "MC30P6280.c"	cnt = 0;
                                           	CLRR	_int_isr_cnt_327680_122
                                           ;	.line	755; "MC30P6280.c"	if (0 == flag_is_in_charging) {
                                           	JBCLR	_flag1,0
                                           	GOTO	_00580_DS_
                                           ;	.line	756; "MC30P6280.c"	pen_pwr_off(); // ¶ĎżŞ±ĘÍ·µÄą©µç
                                           	CALL	_pen_pwr_off
                                           ;	.line	758; "MC30P6280.c"	flag_led_1_on = 0;
                                           	BCLR	_flag1,2
                                           ;	.line	759; "MC30P6280.c"	flag_led_2_on = 0;
                                           	BCLR	_flag1,3
                                           ;	.line	760; "MC30P6280.c"	flag_led_3_on = 0;
                                           	BCLR	_flag1,4
                                           ;	.line	761; "MC30P6280.c"	flag_led_4_on = 0;
                                           	BCLR	_flag1,5
                                           ;	.line	762; "MC30P6280.c"	flag_is_dev_working = 0; // ±íĘľÉč±¸ąŘ±Ő
                                           	BCLR	_flag1,6
                                           ;	.line	764; "MC30P6280.c"	flag_is_charge_begin = 1;
                                           	BSET	_flag1,1
                                           ;	.line	765; "MC30P6280.c"	charge_anim_phase = 0;
                                           	CLRR	_charge_anim_phase
                                           ;	.line	766; "MC30P6280.c"	flag_is_in_charging = 1;
                                           	BSET	_flag1,0
                                           	GOTO	_00580_DS_
                                           _00579_DS_
                                           ;	.line	773; "MC30P6280.c"	cnt = 0;
                                           	CLRR	_int_isr_cnt_327680_122
                                           ;	.line	780; "MC30P6280.c"	flag_is_in_charging = 0;
                                           	BCLR	_flag1,0
                                           _00580_DS_
                                           ;	.line	786; "MC30P6280.c"	if ((CHARGE_PIN == 0) && (flag_is_dev_working == 0)) {
                                           	JBCLR	_P1bits,3
                                           	GOTO	_00584_DS_
                                           	JBCLR	_flag1,6
                                           	GOTO	_00584_DS_
                                           ;;unsigned compare: left < lit(0xFF=255), size=1
                                           ;	.line	787; "MC30P6280.c"	if (into_low_power_cnt < 255) {
                                           	MOVAI	0xff
                                           	RSUBAR	_into_low_power_cnt
                                           	JBCLR	STATUS,0
                                           	GOTO	_00588_DS_
                                           ;;genSkipc:3291: created from rifx:013B5EFC
                                           ;	.line	788; "MC30P6280.c"	into_low_power_cnt++;
                                           	INCR	_into_low_power_cnt
                                           	GOTO	_00588_DS_
                                           _00584_DS_
                                           ;	.line	791; "MC30P6280.c"	into_low_power_cnt = 0;
                                           	CLRR	_into_low_power_cnt
                                           _00588_DS_
                                           ;	.line	796; "MC30P6280.c"	lvd_scan();
                                           	CALL	_lvd_scan
                                           _00590_DS_
                                           ;	.line	800; "MC30P6280.c"	if ((T1IF) && (T1IE)) {
                                           	JBSET	_TMRCRbits,0
                                           	GOTO	_00598_DS_
                                           	JBSET	_TMRCRbits,1
                                           	GOTO	_00598_DS_
                                           ;	.line	801; "MC30P6280.c"	T1IF = 0;
                                           	BCLR	_TMRCRbits,0
                                           ;	.line	805; "MC30P6280.c"	led_refresh();
                                           	CALL	_led_refresh
                                           ;	.line	808; "MC30P6280.c"	if ((VIBRATION_SENSOR_PIN && last_vibration_sensor_lev == 0) ||
                                           	JBSET	_P1bits,5
                                           	GOTO	_00596_DS_
                                           	JBSET	_flag1,7
                                           	GOTO	_00592_DS_
                                           _00596_DS_
                                           ;	.line	809; "MC30P6280.c"	(VIBRATION_SENSOR_PIN == 0 && last_vibration_sensor_lev)) {
                                           	JBCLR	_P1bits,5
                                           	GOTO	_00598_DS_
                                           	JBSET	_flag1,7
                                           	GOTO	_00598_DS_
                                           _00592_DS_
                                           ;	.line	812; "MC30P6280.c"	pwr_off_cnt = 0;
                                           	CLRR	_pwr_off_cnt
                                           	CLRR	(_pwr_off_cnt + 1)
                                           	CLRR	(_pwr_off_cnt + 2)
                                           	CLRR	(_pwr_off_cnt + 3)
                                           ;	.line	814; "MC30P6280.c"	last_vibration_sensor_lev = VIBRATION_SENSOR_PIN;
                                           	CLRR	r0x1023
                                           	JBCLR	_P1bits,5
                                           	INCR	r0x1023
                                           	MOVAR	r0x1023
                                           	MOVRA	r0x1024
                                           	RRAR	r0x1024
                                           	JBSET	STATUS,0
                                           	BCLR	_flag1,7
                                           	JBCLR	STATUS,0
                                           	BSET	_flag1,7
                                           _00598_DS_
                                           ;	.line	825; "MC30P6280.c"	__endasm;
                                           	;
                                           	swapar	_statusbuf;
                                           	movra	_STATUS;
                                           	swapr	_abuf;
                                           	swapar	_abuf;
                                           	
                                           END_OF_INTERRUPT
                                           ;	.line	826; "MC30P6280.c"	}
                                           	RETIE	
                                           
                                           ;--------------------------------------------------------
                                           ; code
                                           ;--------------------------------------------------------
                                           code_MC30P6280	code
                                           ;***
                                           ;  pBlock Stats: dbName = M
                                           ;***
                                           ;entry:  _main	;Function start
                                           ; 2 exit points
                                           ;has an exit
                                           ;functions called:
                                           ;   _Sys_Init
                                           ;   _user_init
                                           ;   _Sys_Init
                                           ;   _user_init
                                           ;   _lvd_scan
                                           ;   _delay_ms
                                           ;   _Sys_Init
                                           ;   _user_init
                                           ;   _Sys_Init
                                           ;   _user_init
                                           ;   _lvd_scan
                                           ;   _delay_ms
                                           ;3 compiler assigned registers:
                                           ;   STK02
                                           ;   STK01
                                           ;   STK00
                                           ;; Starting pCode block
                                           _main	;Function start
                                           ; 2 exit points
                                           ;	.line	565; "MC30P6280.c"	Sys_Init();
                                           	CALL	_Sys_Init
                                           ;	.line	566; "MC30P6280.c"	user_init();
                                           	CALL	_user_init
                                           _00524_DS_
                                           ;	.line	577; "MC30P6280.c"	if ((flag_is_dev_working && pwr_off_cnt >= (u32)5 * 60 * 1000 / 10) ||
                                           	JBSET	_flag1,6
                                           	GOTO	_00522_DS_
                                           ;;unsigned compare: left < lit(0x7530=30000), size=4
                                           	MOVAI	0x00
                                           	RSUBAR	(_pwr_off_cnt + 3)
                                           	JBSET	STATUS,2
                                           	GOTO	_00559_DS_
                                           	MOVAI	0x00
                                           	RSUBAR	(_pwr_off_cnt + 2)
                                           	JBSET	STATUS,2
                                           	GOTO	_00559_DS_
                                           	MOVAI	0x75
                                           	RSUBAR	(_pwr_off_cnt + 1)
                                           	JBSET	STATUS,2
                                           	GOTO	_00559_DS_
                                           	MOVAI	0x30
                                           	RSUBAR	_pwr_off_cnt
                                           _00559_DS_
                                           	JBCLR	STATUS,0
                                           	GOTO	_00514_DS_
                                           ;;genSkipc:3291: created from rifx:013B5EFC
                                           ;;unsigned compare: left < lit(0xC8=200), size=1
                                           _00522_DS_
                                           ;	.line	578; "MC30P6280.c"	into_low_power_cnt >= (u8)((u16)2000 / 10)) {
                                           	MOVAI	0xc8
                                           	RSUBAR	_into_low_power_cnt
                                           	JBSET	STATUS,0
                                           	GOTO	_00524_DS_
                                           ;;genSkipc:3291: created from rifx:013B5EFC
                                           _00514_DS_
                                           ;	.line	593; "MC30P6280.c"	GIE = 0; // ąŘ±Ő×ÜÖĐ¶Ď
                                           	BCLR	_INTEbits,7
                                           ;	.line	595; "MC30P6280.c"	pwr_off_cnt = 0;
                                           	CLRR	_pwr_off_cnt
                                           	CLRR	(_pwr_off_cnt + 1)
                                           	CLRR	(_pwr_off_cnt + 2)
                                           	CLRR	(_pwr_off_cnt + 3)
                                           ;	.line	596; "MC30P6280.c"	into_low_power_cnt = 0;
                                           	CLRR	_into_low_power_cnt
                                           ;	.line	599; "MC30P6280.c"	T0IE = 0;  // ĆÁ±Î timer0 ÖĐ¶Ď
                                           	BCLR	_INTEbits,0
                                           ;	.line	600; "MC30P6280.c"	T1IE = 0;  // ĆÁ±Î timer1 ÖĐ¶Ď
                                           	BCLR	_TMRCRbits,1
                                           ;	.line	601; "MC30P6280.c"	T1EN = 0;  // ˛»ĘąÄÜ¶¨Ę±Ć÷
                                           	BCLR	_T1CRbits,7
                                           ;	.line	602; "MC30P6280.c"	LVDEN = 0; // ąŘ±Ő lvd
                                           	BCLR	_MCRbits,0
                                           ;	.line	605; "MC30P6280.c"	PUCON = 0xFF; // 0:Effective 1:invalid
                                           	MOVAI	0xff
                                           	MOVRA	_PUCON
                                           ;	.line	606; "MC30P6280.c"	PDCON = 0xFF; // 0:Effective 1:invalid
                                           	MOVAI	0xff
                                           	MOVRA	_PDCON
                                           ;	.line	607; "MC30P6280.c"	DDR1 = 0xFF;  // 1:input 0:output
                                           	MOVAI	0xff
                                           	MOVRA	_DDR1
                                           ;	.line	609; "MC30P6280.c"	PUCON &= ~(0x01 << 0);             // ÉĎŔ­ 20K Ł¬ P10(°´ĽüĽě˛â˝Ĺ)
                                           	BCLR	_PUCON,0
                                           ;	.line	610; "MC30P6280.c"	PUCON &= ~(0x01 << 1 | 0x01 << 2); // LEDżŘÖĆ A¶ËşÍB¶ËŁ¬´ňżŞÉĎŔ­
                                           	MOVAI	0xf9
                                           	ANDRA	_PUCON
                                           ;	.line	616; "MC30P6280.c"	KBIF = 0; // ÇĺłýÖĐ¶Ď±ęÖľ
                                           	BCLR	_INTFbits,1
                                           ;	.line	617; "MC30P6280.c"	KBIE = 1; // ĘąÄÜĽüĹĚÖĐ¶Ď
                                           	BSET	_INTEbits,1
                                           ;	.line	621; "MC30P6280.c"	P1KBCR |= (0x01 << 0) | (0x01 << 3);
                                           	MOVAI	0x09
                                           	ORRA	_P1KBCR
                                           ;	.line	629; "MC30P6280.c"	Stop();
                                           	stop	
                                           ;	.line	630; "MC30P6280.c"	Nop();
                                           	nop	
                                           ;	.line	631; "MC30P6280.c"	Nop();
                                           	nop	
                                           ;	.line	634; "MC30P6280.c"	P1KBCR = 0; // ąŘ±ŐËůÓĐĽüĹĚÖĐ¶Ď
                                           	CLRR	_P1KBCR
                                           ;	.line	635; "MC30P6280.c"	KBIE = 0;   // ąŘ±ŐĽüĹĚÖĐ¶Ď
                                           	BCLR	_INTEbits,1
                                           ;	.line	636; "MC30P6280.c"	KBIF = 0;   // Çĺłý ĽüĹĚÖĐ¶Ď ±ęÖľ
                                           	BCLR	_INTFbits,1
                                           ;	.line	643; "MC30P6280.c"	Sys_Init();
                                           	CALL	_Sys_Init
                                           ;	.line	644; "MC30P6280.c"	user_init();
                                           	CALL	_user_init
                                           ;	.line	647; "MC30P6280.c"	for (i = 0; i < 40; i++) {
                                           	CLRR	_i
                                           ;;unsigned compare: left < lit(0x28=40), size=1
                                           _00527_DS_
                                           	MOVAI	0x28
                                           	RSUBAR	_i
                                           	JBCLR	STATUS,0
                                           	GOTO	_00515_DS_
                                           ;;genSkipc:3291: created from rifx:013B5EFC
                                           ;	.line	648; "MC30P6280.c"	lvd_scan();
                                           	CALL	_lvd_scan
                                           ;	.line	649; "MC30P6280.c"	delay_ms(1);
                                           	MOVAI	0x01
                                           	MOVRA	STK02
                                           	MOVAI	0x00
                                           	MOVRA	STK01
                                           	MOVAI	0x00
                                           	MOVRA	STK00
                                           	MOVAI	0x00
                                           	CALL	_delay_ms
                                           ;	.line	647; "MC30P6280.c"	for (i = 0; i < 40; i++) {
                                           	INCR	_i
                                           	GOTO	_00527_DS_
                                           _00515_DS_
                                           ;	.line	655; "MC30P6280.c"	bat_lev = tmp_bat_lev;
                                           	MOVAR	_tmp_bat_lev
                                           	MOVRA	_bat_lev
                                           ;	.line	658; "MC30P6280.c"	if (CHARGE_PIN == 0 && bat_lev > BAT_LEV_3V0) {
                                           	JBCLR	_P1bits,3
                                           	GOTO	_00524_DS_
                                           ;;swapping arguments (AOP_TYPEs 1/3)
                                           ;;unsigned compare: left >= lit(0x2=2), size=1
                                           	MOVAI	0x02
                                           	RSUBAR	_bat_lev
                                           	JBCLR	STATUS,0
                                           	GOTO	_00514_DS_
                                           ;;genSkipc:3291: created from rifx:013B5EFC
                                           ;	.line	659; "MC30P6280.c"	goto label_low_power_in;
                                           	GOTO	_00524_DS_
                                           ;	.line	664; "MC30P6280.c"	}
                                           	RETURN	
                                           ; exit point of _main
                                           
                                           ;***
                                           ;  pBlock Stats: dbName = C
                                           ;***
                                           ;entry:  _led_refresh	;Function start
                                           ; 2 exit points
                                           ;has an exit
                                           ;functions called:
                                           ;   _led_all_off
                                           ;   _led1_on
                                           ;   _led2_on
                                           ;   _led3_on
                                           ;   _led4_on
                                           ;   _led_all_off
                                           ;   _led1_on
                                           ;   _led2_on
                                           ;   _led3_on
                                           ;   _led4_on
                                           ;1 compiler assigned register :
                                           ;   r0x1020
                                           ;; Starting pCode block
                                           _led_refresh	;Function start
                                           ; 2 exit points
                                           ;	.line	530; "MC30P6280.c"	led_all_off();
                                           	CALL	_led_all_off
                                           ;	.line	532; "MC30P6280.c"	switch (sta) {
                                           	MOVAR	_led_refresh_sta_65536_98
                                           	MOVRA	r0x1020
                                           ;;swapping arguments (AOP_TYPEs 1/2)
                                           ;;unsigned compare: left >= lit(0x4=4), size=1
                                           	MOVAI	0x04
                                           	RSUBAR	r0x1020
                                           	JBCLR	STATUS,0
                                           	GOTO	_00486_DS_
                                           ;;genSkipc:3291: created from rifx:013B5EFC
                                           	MOVAI	HIGH(_00509_DS_)
                                           	MOVRA	PCLATH
                                           	MOVAI	_00509_DS_
                                           	ADDAR	r0x1020
                                           	JBCLR	STATUS,0
                                           	INCR	PCLATH
                                           	MOVRA	PCL
                                           _00509_DS_
                                           	GOTO	_00472_DS_
                                           	GOTO	_00475_DS_
                                           	GOTO	_00478_DS_
                                           	GOTO	_00481_DS_
                                           _00472_DS_
                                           ;	.line	534; "MC30P6280.c"	if (flag_led_1_on) {
                                           	JBSET	_flag1,2
                                           	GOTO	_00474_DS_
                                           ;	.line	535; "MC30P6280.c"	led1_on();
                                           	CALL	_led1_on
                                           _00474_DS_
                                           ;	.line	537; "MC30P6280.c"	sta = 1;
                                           	MOVAI	0x01
                                           	MOVRA	_led_refresh_sta_65536_98
                                           ;	.line	538; "MC30P6280.c"	break;
                                           	GOTO	_00486_DS_
                                           _00475_DS_
                                           ;	.line	540; "MC30P6280.c"	if (flag_led_2_on) {
                                           	JBSET	_flag1,3
                                           	GOTO	_00477_DS_
                                           ;	.line	541; "MC30P6280.c"	led2_on();
                                           	CALL	_led2_on
                                           _00477_DS_
                                           ;	.line	543; "MC30P6280.c"	sta = 2;
                                           	MOVAI	0x02
                                           	MOVRA	_led_refresh_sta_65536_98
                                           ;	.line	544; "MC30P6280.c"	break;
                                           	GOTO	_00486_DS_
                                           _00478_DS_
                                           ;	.line	546; "MC30P6280.c"	if (flag_led_3_on) {
                                           	JBSET	_flag1,4
                                           	GOTO	_00480_DS_
                                           ;	.line	547; "MC30P6280.c"	led3_on();
                                           	CALL	_led3_on
                                           _00480_DS_
                                           ;	.line	549; "MC30P6280.c"	sta = 3;
                                           	MOVAI	0x03
                                           	MOVRA	_led_refresh_sta_65536_98
                                           ;	.line	550; "MC30P6280.c"	break;
                                           	GOTO	_00486_DS_
                                           _00481_DS_
                                           ;	.line	552; "MC30P6280.c"	if (flag_led_4_on) {
                                           	JBSET	_flag1,5
                                           	GOTO	_00483_DS_
                                           ;	.line	553; "MC30P6280.c"	led4_on();
                                           	CALL	_led4_on
                                           _00483_DS_
                                           ;	.line	555; "MC30P6280.c"	sta = 0;
                                           	CLRR	_led_refresh_sta_65536_98
                                           _00486_DS_
                                           ;	.line	561; "MC30P6280.c"	}
                                           	RETURN	
                                           ; exit point of _led_refresh
                                           
                                           ;***
                                           ;  pBlock Stats: dbName = C
                                           ;***
                                           ;entry:  _led_status_handle	;Function start
                                           ; 2 exit points
                                           ;has an exit
                                           ;1 compiler assigned register :
                                           ;   r0x1021
                                           ;; Starting pCode block
                                           _led_status_handle	;Function start
                                           ; 2 exit points
                                           ;	.line	412; "MC30P6280.c"	led_sta_reflash_cnt++;
                                           	INCR	_led_sta_reflash_cnt
                                           ;;unsigned compare: left < lit(0x32=50), size=1
                                           ;	.line	413; "MC30P6280.c"	if (led_sta_reflash_cnt >= (u8)(500 / 10)) {
                                           	MOVAI	0x32
                                           	RSUBAR	_led_sta_reflash_cnt
                                           	JBSET	STATUS,0
                                           	GOTO	_00369_DS_
                                           ;;genSkipc:3291: created from rifx:013B5EFC
                                           ;	.line	414; "MC30P6280.c"	led_sta_reflash_cnt = 0;
                                           	CLRR	_led_sta_reflash_cnt
                                           ;	.line	415; "MC30P6280.c"	if (flag_is_in_charging) {
                                           	JBSET	_flag1,0
                                           	GOTO	_00365_DS_
                                           ;	.line	419; "MC30P6280.c"	if (flag_is_charge_begin) {
                                           	JBSET	_flag1,1
                                           	GOTO	_00347_DS_
                                           ;;swapping arguments (AOP_TYPEs 1/3)
                                           ;;unsigned compare: left >= lit(0x3=3), size=1
                                           ;	.line	420; "MC30P6280.c"	if (bat_lev > BAT_LEV_3V2) {
                                           	MOVAI	0x03
                                           	RSUBAR	_bat_lev
                                           	JBSET	STATUS,0
                                           	GOTO	_00330_DS_
                                           ;;genSkipc:3291: created from rifx:013B5EFC
                                           ;	.line	425; "MC30P6280.c"	flag_is_charge_begin = 0;
                                           	BCLR	_flag1,1
                                           ;	.line	426; "MC30P6280.c"	charge_anim_phase = 0;
                                           	CLRR	_charge_anim_phase
                                           	GOTO	_00369_DS_
                                           ;;swapping arguments (AOP_TYPEs 1/3)
                                           ;;unsigned compare: left >= lit(0x3=3), size=1
                                           _00330_DS_
                                           ;	.line	427; "MC30P6280.c"	} else if (bat_lev <= BAT_LEV_3V2 && charge_anim_phase == 0) {
                                           	MOVAI	0x03
                                           	RSUBAR	_bat_lev
                                           	JBCLR	STATUS,0
                                           	GOTO	_00326_DS_
                                           ;;genSkipc:3291: created from rifx:013B5EFC
                                           	MOVAI	0x00
                                           	ORAR	_charge_anim_phase
                                           	JBSET	STATUS,2
                                           	GOTO	_00326_DS_
                                           ;	.line	429; "MC30P6280.c"	flag_led_1_on = 1;
                                           	BSET	_flag1,2
                                           ;	.line	430; "MC30P6280.c"	charge_anim_phase = 1;
                                           	MOVAI	0x01
                                           	MOVRA	_charge_anim_phase
                                           	GOTO	_00369_DS_
                                           ;;swapping arguments (AOP_TYPEs 1/3)
                                           ;;unsigned compare: left >= lit(0x4=4), size=1
                                           _00326_DS_
                                           ;	.line	431; "MC30P6280.c"	} else if (bat_lev <= BAT_LEV_3V3 && charge_anim_phase == 1) {
                                           	MOVAI	0x04
                                           	RSUBAR	_bat_lev
                                           	JBCLR	STATUS,0
                                           	GOTO	_00322_DS_
                                           ;;genSkipc:3291: created from rifx:013B5EFC
                                           	MOVAR	_charge_anim_phase
                                           	XORAI	0x01
                                           	JBSET	STATUS,2
                                           	GOTO	_00322_DS_
                                           ;	.line	433; "MC30P6280.c"	flag_led_2_on = 1;
                                           	BSET	_flag1,3
                                           ;	.line	434; "MC30P6280.c"	charge_anim_phase = 2;
                                           	MOVAI	0x02
                                           	MOVRA	_charge_anim_phase
                                           	GOTO	_00369_DS_
                                           ;;swapping arguments (AOP_TYPEs 1/3)
                                           ;;unsigned compare: left >= lit(0x5=5), size=1
                                           _00322_DS_
                                           ;	.line	435; "MC30P6280.c"	} else if (bat_lev <= BAT_LEV_3V6 && charge_anim_phase == 2) {
                                           	MOVAI	0x05
                                           	RSUBAR	_bat_lev
                                           	JBCLR	STATUS,0
                                           	GOTO	_00318_DS_
                                           ;;genSkipc:3291: created from rifx:013B5EFC
                                           	MOVAR	_charge_anim_phase
                                           	XORAI	0x02
                                           	JBSET	STATUS,2
                                           	GOTO	_00318_DS_
                                           ;	.line	437; "MC30P6280.c"	flag_led_3_on = 1;
                                           	BSET	_flag1,4
                                           ;	.line	438; "MC30P6280.c"	charge_anim_phase = 3;
                                           	MOVAI	0x03
                                           	MOVRA	_charge_anim_phase
                                           	GOTO	_00369_DS_
                                           ;;swapping arguments (AOP_TYPEs 1/3)
                                           ;;unsigned compare: left >= lit(0x6=6), size=1
                                           _00318_DS_
                                           ;	.line	439; "MC30P6280.c"	} else if (bat_lev <= BAT_LEV_4V0 && charge_anim_phase == 3) {
                                           	MOVAI	0x06
                                           	RSUBAR	_bat_lev
                                           	JBCLR	STATUS,0
                                           	GOTO	_00314_DS_
                                           ;;genSkipc:3291: created from rifx:013B5EFC
                                           	MOVAR	_charge_anim_phase
                                           	XORAI	0x03
                                           	JBSET	STATUS,2
                                           	GOTO	_00314_DS_
                                           ;	.line	441; "MC30P6280.c"	flag_led_4_on = 1;
                                           	BSET	_flag1,5
                                           ;	.line	442; "MC30P6280.c"	charge_anim_phase = 4;
                                           	MOVAI	0x04
                                           	MOVRA	_charge_anim_phase
                                           	GOTO	_00369_DS_
                                           _00314_DS_
                                           ;	.line	444; "MC30P6280.c"	flag_is_charge_begin = 0; // ÍËłö¸ŐżŞĘĽłäµçµÄ¶Ż»­
                                           	BCLR	_flag1,1
                                           ;	.line	449; "MC30P6280.c"	pwr_off_cnt = (u8)(500 / 10);
                                           	MOVAI	0x32
                                           	MOVRA	_pwr_off_cnt
                                           	CLRR	(_pwr_off_cnt + 1)
                                           	CLRR	(_pwr_off_cnt + 2)
                                           	CLRR	(_pwr_off_cnt + 3)
                                           	GOTO	_00369_DS_
                                           _00347_DS_
                                           ;	.line	453; "MC30P6280.c"	switch (bat_lev) {
                                           	MOVAR	_bat_lev
                                           	MOVRA	r0x1021
                                           ;;unsigned compare: left < lit(0x2=2), size=1
                                           	MOVAI	0x02
                                           	RSUBAR	r0x1021
                                           	JBSET	STATUS,0
                                           	GOTO	_00336_DS_
                                           ;;genSkipc:3291: created from rifx:013B5EFC
                                           ;;swapping arguments (AOP_TYPEs 1/2)
                                           ;;unsigned compare: left >= lit(0x6=6), size=1
                                           	MOVAI	0x06
                                           	RSUBAR	r0x1021
                                           	JBCLR	STATUS,0
                                           	GOTO	_00336_DS_
                                           ;;genSkipc:3291: created from rifx:013B5EFC
                                           	MOVAI	0xfe
                                           	ADDRA	r0x1021
                                           	MOVAI	HIGH(_00467_DS_)
                                           	MOVRA	PCLATH
                                           	MOVAI	_00467_DS_
                                           	ADDAR	r0x1021
                                           	JBCLR	STATUS,0
                                           	INCR	PCLATH
                                           	MOVRA	PCL
                                           _00467_DS_
                                           	GOTO	_00335_DS_
                                           	GOTO	_00334_DS_
                                           	GOTO	_00333_DS_
                                           	GOTO	_00332_DS_
                                           _00332_DS_
                                           ;	.line	455; "MC30P6280.c"	flag_led_4_on = 1;
                                           	BSET	_flag1,5
                                           ;	.line	456; "MC30P6280.c"	break;
                                           	GOTO	_00337_DS_
                                           _00333_DS_
                                           ;	.line	458; "MC30P6280.c"	flag_led_4_on = ~flag_led_4_on;
                                           	CLRR	r0x1021
                                           	JBCLR	_flag1,5
                                           	INCR	r0x1021
                                           	COMAR	r0x1021
                                           	MOVRA	r0x1021
                                           	RRAR	r0x1021
                                           	JBSET	STATUS,0
                                           	BCLR	_flag1,5
                                           	JBCLR	STATUS,0
                                           	BSET	_flag1,5
                                           ;	.line	459; "MC30P6280.c"	break;
                                           	GOTO	_00337_DS_
                                           _00334_DS_
                                           ;	.line	461; "MC30P6280.c"	flag_led_3_on = ~flag_led_3_on;
                                           	CLRR	r0x1021
                                           	JBCLR	_flag1,4
                                           	INCR	r0x1021
                                           	COMAR	r0x1021
                                           	MOVRA	r0x1021
                                           	RRAR	r0x1021
                                           	JBSET	STATUS,0
                                           	BCLR	_flag1,4
                                           	JBCLR	STATUS,0
                                           	BSET	_flag1,4
                                           ;	.line	462; "MC30P6280.c"	break;
                                           	GOTO	_00337_DS_
                                           _00335_DS_
                                           ;	.line	464; "MC30P6280.c"	flag_led_2_on = ~flag_led_2_on;
                                           	CLRR	r0x1021
                                           	JBCLR	_flag1,3
                                           	INCR	r0x1021
                                           	COMAR	r0x1021
                                           	MOVRA	r0x1021
                                           	RRAR	r0x1021
                                           	JBSET	STATUS,0
                                           	BCLR	_flag1,3
                                           	JBCLR	STATUS,0
                                           	BSET	_flag1,3
                                           ;	.line	465; "MC30P6280.c"	break;
                                           	GOTO	_00337_DS_
                                           _00336_DS_
                                           ;	.line	467; "MC30P6280.c"	flag_led_1_on = ~flag_led_1_on;
                                           	CLRR	r0x1021
                                           	JBCLR	_flag1,2
                                           	INCR	r0x1021
                                           	COMAR	r0x1021
                                           	MOVRA	r0x1021
                                           	RRAR	r0x1021
                                           	JBSET	STATUS,0
                                           	BCLR	_flag1,2
                                           	JBCLR	STATUS,0
                                           	BSET	_flag1,2
                                           ;;swapping arguments (AOP_TYPEs 1/3)
                                           ;;unsigned compare: left >= lit(0x3=3), size=1
                                           _00337_DS_
                                           ;	.line	471; "MC30P6280.c"	if (bat_lev <= BAT_LEV_3V2) {
                                           	MOVAI	0x03
                                           	RSUBAR	_bat_lev
                                           	JBCLR	STATUS,0
                                           	GOTO	_00344_DS_
                                           ;;genSkipc:3291: created from rifx:013B5EFC
                                           ;	.line	472; "MC30P6280.c"	flag_led_1_on = 1; // Ö¸ĘľµĆłŁÁÁŁ¬˛»ÉÁË¸
                                           	BSET	_flag1,2
                                           	GOTO	_00369_DS_
                                           ;;swapping arguments (AOP_TYPEs 1/3)
                                           ;;unsigned compare: left >= lit(0x4=4), size=1
                                           _00344_DS_
                                           ;	.line	473; "MC30P6280.c"	} else if (bat_lev <= BAT_LEV_3V3) {
                                           	MOVAI	0x04
                                           	RSUBAR	_bat_lev
                                           	JBCLR	STATUS,0
                                           	GOTO	_00341_DS_
                                           ;;genSkipc:3291: created from rifx:013B5EFC
                                           ;	.line	474; "MC30P6280.c"	flag_led_2_on = 1; // Ö¸ĘľµĆłŁÁÁŁ¬˛»ÉÁË¸
                                           	BSET	_flag1,3
                                           	GOTO	_00369_DS_
                                           ;;swapping arguments (AOP_TYPEs 1/3)
                                           ;;unsigned compare: left >= lit(0x5=5), size=1
                                           _00341_DS_
                                           ;	.line	475; "MC30P6280.c"	} else if (bat_lev <= BAT_LEV_3V6) {
                                           	MOVAI	0x05
                                           	RSUBAR	_bat_lev
                                           	JBCLR	STATUS,0
                                           	GOTO	_00369_DS_
                                           ;;genSkipc:3291: created from rifx:013B5EFC
                                           ;	.line	476; "MC30P6280.c"	flag_led_3_on = 1; // Ö¸ĘľµĆłŁÁÁŁ¬˛»ÉÁË¸
                                           	BSET	_flag1,4
                                           	GOTO	_00369_DS_
                                           _00365_DS_
                                           ;	.line	479; "MC30P6280.c"	} else if (flag_is_dev_working) {
                                           	JBSET	_flag1,6
                                           	GOTO	_00362_DS_
                                           ;;swapping arguments (AOP_TYPEs 1/3)
                                           ;;unsigned compare: left >= lit(0x6=6), size=1
                                           ;	.line	488; "MC30P6280.c"	if (bat_lev <= BAT_LEV_4V0) {
                                           	MOVAI	0x06
                                           	RSUBAR	_bat_lev
                                           	JBCLR	STATUS,0
                                           	GOTO	_00359_DS_
                                           ;;genSkipc:3291: created from rifx:013B5EFC
                                           ;	.line	489; "MC30P6280.c"	flag_led_4_on = 1;
                                           	BSET	_flag1,5
                                           ;	.line	490; "MC30P6280.c"	flag_led_3_on = 1;
                                           	BSET	_flag1,4
                                           ;	.line	491; "MC30P6280.c"	flag_led_2_on = 1;
                                           	BSET	_flag1,3
                                           ;	.line	492; "MC30P6280.c"	flag_led_1_on = 1;
                                           	BSET	_flag1,2
                                           	GOTO	_00369_DS_
                                           ;;swapping arguments (AOP_TYPEs 1/3)
                                           ;;unsigned compare: left >= lit(0x5=5), size=1
                                           _00359_DS_
                                           ;	.line	493; "MC30P6280.c"	} else if (bat_lev <= BAT_LEV_3V6) {
                                           	MOVAI	0x05
                                           	RSUBAR	_bat_lev
                                           	JBCLR	STATUS,0
                                           	GOTO	_00356_DS_
                                           ;;genSkipc:3291: created from rifx:013B5EFC
                                           ;	.line	494; "MC30P6280.c"	flag_led_4_on = 0;
                                           	BCLR	_flag1,5
                                           ;	.line	495; "MC30P6280.c"	flag_led_3_on = 1;
                                           	BSET	_flag1,4
                                           ;	.line	496; "MC30P6280.c"	flag_led_2_on = 1;
                                           	BSET	_flag1,3
                                           ;	.line	497; "MC30P6280.c"	flag_led_1_on = 1;
                                           	BSET	_flag1,2
                                           	GOTO	_00369_DS_
                                           ;;swapping arguments (AOP_TYPEs 1/3)
                                           ;;unsigned compare: left >= lit(0x4=4), size=1
                                           _00356_DS_
                                           ;	.line	498; "MC30P6280.c"	} else if (bat_lev <= BAT_LEV_3V3) {
                                           	MOVAI	0x04
                                           	RSUBAR	_bat_lev
                                           	JBCLR	STATUS,0
                                           	GOTO	_00353_DS_
                                           ;;genSkipc:3291: created from rifx:013B5EFC
                                           ;	.line	499; "MC30P6280.c"	flag_led_4_on = 0;
                                           	BCLR	_flag1,5
                                           ;	.line	500; "MC30P6280.c"	flag_led_3_on = 0;
                                           	BCLR	_flag1,4
                                           ;	.line	501; "MC30P6280.c"	flag_led_2_on = 1;
                                           	BSET	_flag1,3
                                           ;	.line	502; "MC30P6280.c"	flag_led_1_on = 1;
                                           	BSET	_flag1,2
                                           	GOTO	_00369_DS_
                                           ;;swapping arguments (AOP_TYPEs 1/3)
                                           ;;unsigned compare: left >= lit(0x3=3), size=1
                                           _00353_DS_
                                           ;	.line	503; "MC30P6280.c"	} else if (bat_lev <= BAT_LEV_3V2) {
                                           	MOVAI	0x03
                                           	RSUBAR	_bat_lev
                                           	JBCLR	STATUS,0
                                           	GOTO	_00350_DS_
                                           ;;genSkipc:3291: created from rifx:013B5EFC
                                           ;	.line	504; "MC30P6280.c"	flag_led_4_on = 0;
                                           	BCLR	_flag1,5
                                           ;	.line	505; "MC30P6280.c"	flag_led_3_on = 0;
                                           	BCLR	_flag1,4
                                           ;	.line	506; "MC30P6280.c"	flag_led_2_on = 0;
                                           	BCLR	_flag1,3
                                           ;	.line	507; "MC30P6280.c"	flag_led_1_on = 1;
                                           	BSET	_flag1,2
                                           	GOTO	_00369_DS_
                                           _00350_DS_
                                           ;	.line	509; "MC30P6280.c"	flag_led_4_on = 0;
                                           	BCLR	_flag1,5
                                           ;	.line	510; "MC30P6280.c"	flag_led_3_on = 0;
                                           	BCLR	_flag1,4
                                           ;	.line	511; "MC30P6280.c"	flag_led_2_on = 0;
                                           	BCLR	_flag1,3
                                           ;	.line	513; "MC30P6280.c"	flag_led_1_on = ~flag_led_1_on;
                                           	CLRR	r0x1021
                                           	JBCLR	_flag1,2
                                           	INCR	r0x1021
                                           	COMAR	r0x1021
                                           	MOVRA	r0x1021
                                           	RRAR	r0x1021
                                           	JBSET	STATUS,0
                                           	BCLR	_flag1,2
                                           	JBCLR	STATUS,0
                                           	BSET	_flag1,2
                                           	GOTO	_00369_DS_
                                           _00362_DS_
                                           ;	.line	517; "MC30P6280.c"	flag_led_1_on = 0;
                                           	BCLR	_flag1,2
                                           ;	.line	518; "MC30P6280.c"	flag_led_2_on = 0;
                                           	BCLR	_flag1,3
                                           ;	.line	519; "MC30P6280.c"	flag_led_3_on = 0;
                                           	BCLR	_flag1,4
                                           ;	.line	520; "MC30P6280.c"	flag_led_4_on = 0;
                                           	BCLR	_flag1,5
                                           _00369_DS_
                                           ;	.line	523; "MC30P6280.c"	}
                                           	RETURN	
                                           ; exit point of _led_status_handle
                                           
                                           ;***
                                           ;  pBlock Stats: dbName = C
                                           ;***
                                           ;entry:  _key_scan	;Function start
                                           ; 2 exit points
                                           ;has an exit
                                           ;functions called:
                                           ;   _led_all_off
                                           ;   _pen_pwr_on
                                           ;   _pen_pwr_off
                                           ;   _led_all_off
                                           ;   _pen_pwr_on
                                           ;   _pen_pwr_off
                                           ;1 compiler assigned register :
                                           ;   r0x1022
                                           ;; Starting pCode block
                                           _key_scan	;Function start
                                           ; 2 exit points
                                           ;	.line	292; "MC30P6280.c"	if (flag_is_in_charging) {
                                           	JBSET	_flag1,0
                                           	GOTO	_00218_DS_
                                           ;	.line	294; "MC30P6280.c"	last_key_id = 0;
                                           	CLRR	_last_key_id
                                           ;	.line	295; "MC30P6280.c"	press_cnt = 0;
                                           	CLRR	_press_cnt
                                           ;	.line	296; "MC30P6280.c"	filter_cnt = 0;
                                           	CLRR	_filter_cnt
                                           ;	.line	297; "MC30P6280.c"	filter_key_id = 0;
                                           	CLRR	_filter_key_id
                                           ;	.line	298; "MC30P6280.c"	click_delay_cnt = 0;
                                           	CLRR	_click_delay_cnt
                                           ;	.line	299; "MC30P6280.c"	click_cnt = 0;
                                           	CLRR	_click_cnt
                                           ;	.line	300; "MC30P6280.c"	cur_key_id = 0;
                                           	CLRR	_cur_key_id
                                           ;	.line	301; "MC30P6280.c"	return;
                                           	GOTO	_00250_DS_
                                           _00218_DS_
                                           ;	.line	304; "MC30P6280.c"	led_all_off();
                                           	CALL	_led_all_off
                                           ;	.line	307; "MC30P6280.c"	PUCON &= ~(0x01 << 0); // ÉĎŔ­µç×č 20K
                                           	BCLR	_PUCON,0
                                           ;	.line	308; "MC30P6280.c"	DDR1 |= 0x01 << 0;     // ĘäČëÄŁĘ˝
                                           	BSET	_DDR1,0
                                           ;	.line	315; "MC30P6280.c"	if (1 == KEY_SCAN_PIN) {
                                           	CLRR	r0x1022
                                           	JBCLR	_P1bits,0
                                           	INCR	r0x1022
                                           	MOVAR	r0x1022
                                           	XORAI	0x01
                                           	JBSET	STATUS,2
                                           	GOTO	_00220_DS_
                                           ;	.line	316; "MC30P6280.c"	cur_key_id = KEY_ID_NONE;
                                           	CLRR	_cur_key_id
                                           	GOTO	_00221_DS_
                                           _00220_DS_
                                           ;	.line	319; "MC30P6280.c"	cur_key_id = KEY_ID_VAILD;
                                           	MOVAI	0x01
                                           	MOVRA	_cur_key_id
                                           ;	.line	323; "MC30P6280.c"	pwr_off_cnt = 0;
                                           	CLRR	_pwr_off_cnt
                                           	CLRR	(_pwr_off_cnt + 1)
                                           	CLRR	(_pwr_off_cnt + 2)
                                           	CLRR	(_pwr_off_cnt + 3)
                                           ;	.line	324; "MC30P6280.c"	into_low_power_cnt = 0;
                                           	CLRR	_into_low_power_cnt
                                           _00221_DS_
                                           ;	.line	327; "MC30P6280.c"	if (cur_key_id != filter_key_id) {
                                           	MOVAR	_filter_key_id
                                           	XORAR	_cur_key_id
                                           	JBSET	STATUS,2
                                           	GOTO	_00304_DS_
                                           	GOTO	_00223_DS_
                                           _00304_DS_
                                           ;	.line	329; "MC30P6280.c"	filter_cnt = 0;
                                           	CLRR	_filter_cnt
                                           ;	.line	330; "MC30P6280.c"	filter_key_id = cur_key_id;
                                           	MOVAR	_cur_key_id
                                           	MOVRA	_filter_key_id
                                           ;	.line	331; "MC30P6280.c"	return;
                                           	GOTO	_00250_DS_
                                           ;;unsigned compare: left < lit(0x3=3), size=1
                                           _00223_DS_
                                           ;	.line	334; "MC30P6280.c"	if (filter_cnt < KEY_FILTER_TIMES) {
                                           	MOVAI	0x03
                                           	RSUBAR	_filter_cnt
                                           	JBCLR	STATUS,0
                                           	GOTO	_00225_DS_
                                           ;;genSkipc:3291: created from rifx:013B5EFC
                                           ;	.line	337; "MC30P6280.c"	filter_cnt++;
                                           	INCR	_filter_cnt
                                           ;	.line	338; "MC30P6280.c"	return;
                                           	GOTO	_00250_DS_
                                           _00225_DS_
                                           ;	.line	342; "MC30P6280.c"	if (last_key_id != cur_key_id) {
                                           	MOVAR	_cur_key_id
                                           	XORAR	_last_key_id
                                           	JBSET	STATUS,2
                                           	GOTO	_00306_DS_
                                           	GOTO	_00248_DS_
                                           _00306_DS_
                                           ;	.line	345; "MC30P6280.c"	if (cur_key_id == KEY_ID_NONE) {
                                           	MOVAI	0x00
                                           	ORAR	_cur_key_id
                                           	JBSET	STATUS,2
                                           	GOTO	_00227_DS_
                                           ;	.line	347; "MC30P6280.c"	click_delay_cnt = 0;
                                           	CLRR	_click_delay_cnt
                                           	GOTO	_00249_DS_
                                           _00227_DS_
                                           ;	.line	351; "MC30P6280.c"	press_cnt = 0; // ÖŘÖĂ°´Ľü°´ĎÂĘ±ĽäĽĆĘý
                                           	CLRR	_press_cnt
                                           ;	.line	352; "MC30P6280.c"	click_cnt++;
                                           	INCR	_click_cnt
                                           	GOTO	_00249_DS_
                                           _00248_DS_
                                           ;	.line	362; "MC30P6280.c"	if (cur_key_id == KEY_ID_NONE) { // Ă»ÓĐ°´Ľü°´ĎÂŁ¬ËµĂ÷ËÉĘÖ
                                           	MOVAI	0x00
                                           	ORAR	_cur_key_id
                                           	JBSET	STATUS,2
                                           	GOTO	_00245_DS_
                                           ;	.line	363; "MC30P6280.c"	if (click_cnt > 0) {
                                           	MOVAI	0x00
                                           	ORAR	_click_cnt
                                           	JBCLR	STATUS,2
                                           	GOTO	_00249_DS_
                                           ;;unsigned compare: left < lit(0x1E=30), size=1
                                           ;	.line	364; "MC30P6280.c"	if (click_delay_cnt >= KEY_CLICK_DELAY_TIME) {
                                           	MOVAI	0x1e
                                           	RSUBAR	_click_delay_cnt
                                           	JBSET	STATUS,0
                                           	GOTO	_00238_DS_
                                           ;;genSkipc:3291: created from rifx:013B5EFC
                                           ;	.line	365; "MC30P6280.c"	if (click_cnt == 1) {
                                           	MOVAR	_click_cnt
                                           	XORAI	0x01
                                           	JBSET	STATUS,2
                                           	GOTO	_00308_DS_
                                           	GOTO	_00234_DS_
                                           _00308_DS_
                                           ;	.line	370; "MC30P6280.c"	flag_is_dev_working = ~flag_is_dev_working;
                                           	CLRR	r0x1022
                                           	JBCLR	_flag1,6
                                           	INCR	r0x1022
                                           	COMAR	r0x1022
                                           	MOVRA	r0x1022
                                           	RRAR	r0x1022
                                           	JBSET	STATUS,0
                                           	BCLR	_flag1,6
                                           	JBCLR	STATUS,0
                                           	BSET	_flag1,6
                                           ;	.line	374; "MC30P6280.c"	if (flag_is_dev_working) {
                                           	JBSET	_flag1,6
                                           	GOTO	_00230_DS_
                                           ;	.line	375; "MC30P6280.c"	pen_pwr_on();
                                           	CALL	_pen_pwr_on
                                           ;	.line	377; "MC30P6280.c"	led_sta_reflash_cnt = (u8)(500 / 10);
                                           	MOVAI	0x32
                                           	MOVRA	_led_sta_reflash_cnt
                                           	GOTO	_00234_DS_
                                           _00230_DS_
                                           ;	.line	379; "MC30P6280.c"	pen_pwr_off();
                                           	CALL	_pen_pwr_off
                                           ;	.line	380; "MC30P6280.c"	flag_led_1_on = 0;
                                           	BCLR	_flag1,2
                                           ;	.line	381; "MC30P6280.c"	flag_led_2_on = 0;
                                           	BCLR	_flag1,3
                                           ;	.line	382; "MC30P6280.c"	flag_led_3_on = 0;
                                           	BCLR	_flag1,4
                                           ;	.line	383; "MC30P6280.c"	flag_led_4_on = 0;
                                           	BCLR	_flag1,5
                                           _00234_DS_
                                           ;	.line	387; "MC30P6280.c"	click_cnt = 0; // ´¦ŔíÍęĘÂĽţşó,ÇĺżŐÁ¬»÷µÄ´ÎĘý
                                           	CLRR	_click_cnt
                                           	GOTO	_00249_DS_
                                           ;;unsigned compare: left < lit(0xFF=255), size=1
                                           _00238_DS_
                                           ;	.line	389; "MC30P6280.c"	if (click_delay_cnt < 255) {
                                           	MOVAI	0xff
                                           	RSUBAR	_click_delay_cnt
                                           	JBCLR	STATUS,0
                                           	GOTO	_00249_DS_
                                           ;;genSkipc:3291: created from rifx:013B5EFC
                                           ;	.line	391; "MC30P6280.c"	click_delay_cnt++;
                                           	INCR	_click_delay_cnt
                                           	GOTO	_00249_DS_
                                           ;;unsigned compare: left < lit(0xFF=255), size=1
                                           _00245_DS_
                                           ;	.line	400; "MC30P6280.c"	if (press_cnt < 255) {
                                           	MOVAI	0xff
                                           	RSUBAR	_press_cnt
                                           	JBCLR	STATUS,0
                                           	GOTO	_00249_DS_
                                           ;;genSkipc:3291: created from rifx:013B5EFC
                                           ;	.line	401; "MC30P6280.c"	press_cnt++;
                                           	INCR	_press_cnt
                                           _00249_DS_
                                           ;	.line	406; "MC30P6280.c"	last_key_id = cur_key_id;
                                           	MOVAR	_cur_key_id
                                           	MOVRA	_last_key_id
                                           _00250_DS_
                                           ;	.line	407; "MC30P6280.c"	}
                                           	RETURN	
                                           ; exit point of _key_scan
                                           
                                           ;***
                                           ;  pBlock Stats: dbName = C
                                           ;***
                                           ;entry:  _led4_on	;Function start
                                           ; 2 exit points
                                           ;has an exit
                                           ;; Starting pCode block
                                           _led4_on	;Function start
                                           ; 2 exit points
                                           ;	.line	282; "MC30P6280.c"	P1 &= ~(0x01 << 0);   // P10 ĘäłöµÍµçĆ˝
                                           	BCLR	_P1,0
                                           ;	.line	283; "MC30P6280.c"	DDR1 &= ~(0x01 << 0); // P10 ĘäłöÄŁĘ˝
                                           	BCLR	_DDR1,0
                                           ;	.line	285; "MC30P6280.c"	P1 |= (0x01 << 2);    // P12 Ęäłö¸ßµçĆ˝
                                           	BSET	_P1,2
                                           ;	.line	286; "MC30P6280.c"	DDR1 &= ~(0x01 << 2); // P12 ĘäłöÄŁĘ˝
                                           	BCLR	_DDR1,2
                                           ;	.line	287; "MC30P6280.c"	}
                                           	RETURN	
                                           ; exit point of _led4_on
                                           
                                           ;***
                                           ;  pBlock Stats: dbName = C
                                           ;***
                                           ;entry:  _led3_on	;Function start
                                           ; 2 exit points
                                           ;has an exit
                                           ;; Starting pCode block
                                           _led3_on	;Function start
                                           ; 2 exit points
                                           ;	.line	270; "MC30P6280.c"	P1 &= ~(0x01 << 2);   // P12 ĘäłöµÍµçĆ˝
                                           	BCLR	_P1,2
                                           ;	.line	271; "MC30P6280.c"	DDR1 &= ~(0x01 << 2); // P12 ĘäłöÄŁĘ˝
                                           	BCLR	_DDR1,2
                                           ;	.line	273; "MC30P6280.c"	P1 |= (0x01 << 0);    // P10 Ęäłö¸ßµçĆ˝
                                           	BSET	_P1,0
                                           ;	.line	274; "MC30P6280.c"	DDR1 &= ~(0x01 << 0); // P10 ĘäłöÄŁĘ˝
                                           	BCLR	_DDR1,0
                                           ;	.line	275; "MC30P6280.c"	}
                                           	RETURN	
                                           ; exit point of _led3_on
                                           
                                           ;***
                                           ;  pBlock Stats: dbName = C
                                           ;***
                                           ;entry:  _led2_on	;Function start
                                           ; 2 exit points
                                           ;has an exit
                                           ;; Starting pCode block
                                           _led2_on	;Function start
                                           ; 2 exit points
                                           ;	.line	257; "MC30P6280.c"	P1 &= ~(0x01 << 1);   // P11 ĘäłöµÍµçĆ˝
                                           	BCLR	_P1,1
                                           ;	.line	258; "MC30P6280.c"	DDR1 &= ~(0x01 << 1); // P11 ĘäłöÄŁĘ˝
                                           	BCLR	_DDR1,1
                                           ;	.line	261; "MC30P6280.c"	P1 |= (0x01 << 0);    // P10 Ęäłö¸ßµçĆ˝
                                           	BSET	_P1,0
                                           ;	.line	262; "MC30P6280.c"	DDR1 &= ~(0x01 << 0); // P10 ĘäłöÄŁĘ˝
                                           	BCLR	_DDR1,0
                                           ;	.line	263; "MC30P6280.c"	}
                                           	RETURN	
                                           ; exit point of _led2_on
                                           
                                           ;***
                                           ;  pBlock Stats: dbName = C
                                           ;***
                                           ;entry:  _led1_on	;Function start
                                           ; 2 exit points
                                           ;has an exit
                                           ;; Starting pCode block
                                           _led1_on	;Function start
                                           ; 2 exit points
                                           ;	.line	242; "MC30P6280.c"	P1 &= ~(0x01 << 0);
                                           	BCLR	_P1,0
                                           ;	.line	243; "MC30P6280.c"	DDR1 &= ~(0x01 << 0); // ĘäłöÄŁĘ˝
                                           	BCLR	_DDR1,0
                                           ;	.line	247; "MC30P6280.c"	P1 |= (0x01 << 1);    // P11 Ęäłö¸ßµçĆ˝
                                           	BSET	_P1,1
                                           ;	.line	248; "MC30P6280.c"	DDR1 &= ~(0x01 << 1); // P11 ĘäłöÄŁĘ˝
                                           	BCLR	_DDR1,1
                                           ;	.line	249; "MC30P6280.c"	}
                                           	RETURN	
                                           ; exit point of _led1_on
                                           
                                           ;***
                                           ;  pBlock Stats: dbName = C
                                           ;***
                                           ;entry:  _led_all_off	;Function start
                                           ; 2 exit points
                                           ;has an exit
                                           ;; Starting pCode block
                                           _led_all_off	;Function start
                                           ; 2 exit points
                                           ;	.line	227; "MC30P6280.c"	PUCON |= (0x01 << 0 | 0x01 << 1 | 0x01 << 2);
                                           	MOVAI	0x07
                                           	ORRA	_PUCON
                                           ;	.line	232; "MC30P6280.c"	(0x01 << 2);  // P12
                                           	MOVAI	0x07
                                           	ORRA	_DDR1
                                           ;	.line	234; "MC30P6280.c"	}
                                           	RETURN	
                                           ; exit point of _led_all_off
                                           
                                           ;***
                                           ;  pBlock Stats: dbName = C
                                           ;***
                                           ;entry:  _pen_pwr_off	;Function start
                                           ; 2 exit points
                                           ;has an exit
                                           ;; Starting pCode block
                                           _pen_pwr_off	;Function start
                                           ; 2 exit points
                                           ;	.line	213; "MC30P6280.c"	PUCON |= (0x01 << 4); // ˛»ĘąÄÜÉĎŔ­
                                           	BSET	_PUCON,4
                                           ;	.line	214; "MC30P6280.c"	PDCON |= (0x01 << 4); // ˛»ĘąÄÜĎÂŔ­
                                           	BSET	_PDCON,4
                                           ;	.line	215; "MC30P6280.c"	DDR1 |= 0x01 << 4;    // P14 ĘäČëÄŁĘ˝
                                           	BSET	_DDR1,4
                                           ;	.line	217; "MC30P6280.c"	}
                                           	RETURN	
                                           ; exit point of _pen_pwr_off
                                           
                                           ;***
                                           ;  pBlock Stats: dbName = C
                                           ;***
                                           ;entry:  _pen_pwr_on	;Function start
                                           ; 2 exit points
                                           ;has an exit
                                           ;; Starting pCode block
                                           _pen_pwr_on	;Function start
                                           ; 2 exit points
                                           ;	.line	203; "MC30P6280.c"	DDR1 &= ~(0x01 << 4); // ĘäłöÄŁĘ˝
                                           	BCLR	_DDR1,4
                                           ;	.line	204; "MC30P6280.c"	P14D = 0;             // ĘäłöµÍµçĆ˝
                                           	BCLR	_P1bits,4
                                           ;	.line	206; "MC30P6280.c"	}
                                           	RETURN	
                                           ; exit point of _pen_pwr_on
                                           
                                           ;***
                                           ;  pBlock Stats: dbName = C
                                           ;***
                                           ;entry:  _user_init	;Function start
                                           ; 2 exit points
                                           ;has an exit
                                           ;functions called:
                                           ;   _timer0_init
                                           ;   _timer1_init
                                           ;   _delay_ms
                                           ;   _timer0_init
                                           ;   _timer1_init
                                           ;   _delay_ms
                                           ;3 compiler assigned registers:
                                           ;   STK02
                                           ;   STK01
                                           ;   STK00
                                           ;; Starting pCode block
                                           _user_init	;Function start
                                           ; 2 exit points
                                           ;	.line	170; "MC30P6280.c"	PUCON &= ~(0x01 << 0); // ÉĎŔ­µç×č 20K
                                           	BCLR	_PUCON,0
                                           ;	.line	171; "MC30P6280.c"	DDR1 |= 0x01 << 0;     // ĘäČëÄŁĘ˝
                                           	BSET	_DDR1,0
                                           ;	.line	174; "MC30P6280.c"	DDR1 |= 0x01 << 4; // P14 ĘäČëÄŁĘ˝
                                           	BSET	_DDR1,4
                                           ;	.line	177; "MC30P6280.c"	DDR1 |= 0x01 << 5; // ĘäČëÄŁĘ˝
                                           	BSET	_DDR1,5
                                           ;	.line	180; "MC30P6280.c"	DDR1 |= 0x01 << 3;
                                           	BSET	_DDR1,3
                                           ;	.line	182; "MC30P6280.c"	timer0_init();
                                           	CALL	_timer0_init
                                           ;	.line	183; "MC30P6280.c"	timer1_init();
                                           	CALL	_timer1_init
                                           ;	.line	193; "MC30P6280.c"	delay_ms(1); // µČ´ýĎµÍłÎČ¶¨
                                           	MOVAI	0x01
                                           	MOVRA	STK02
                                           	MOVAI	0x00
                                           	MOVRA	STK01
                                           	MOVAI	0x00
                                           	MOVRA	STK00
                                           	MOVAI	0x00
                                           	CALL	_delay_ms
                                           ;	.line	194; "MC30P6280.c"	}
                                           	RETURN	
                                           ; exit point of _user_init
                                           
                                           ;***
                                           ;  pBlock Stats: dbName = C
                                           ;***
                                           ;entry:  _delay_ms	;Function start
                                           ; 2 exit points
                                           ;has an exit
                                           ;11 compiler assigned registers:
                                           ;   r0x1018
                                           ;   STK00
                                           ;   r0x1019
                                           ;   STK01
                                           ;   r0x101A
                                           ;   STK02
                                           ;   r0x101B
                                           ;   r0x101C
                                           ;   r0x101D
                                           ;   r0x101E
                                           ;   r0x101F
                                           ;; Starting pCode block
                                           _delay_ms	;Function start
                                           ; 2 exit points
                                           ;	.line	154; "MC30P6280.c"	void delay_ms(u32 xms)
                                           	MOVRA	r0x1018
                                           	MOVAR	STK00
                                           	MOVRA	r0x1019
                                           	MOVAR	STK01
                                           	MOVRA	r0x101A
                                           	MOVAR	STK02
                                           	MOVRA	r0x101B
                                           _00177_DS_
                                           ;	.line	156; "MC30P6280.c"	while (xms) {
                                           	MOVAR	r0x101B
                                           	ORAR	r0x101A
                                           	ORAR	r0x1019
                                           	ORAR	r0x1018
                                           	JBCLR	STATUS,2
                                           	GOTO	_00180_DS_
                                           ;	.line	158; "MC30P6280.c"	while (i--) {
                                           	MOVAI	0x13
                                           	MOVRA	r0x101C
                                           	MOVAI	0x02
                                           	MOVRA	r0x101D
                                           _00174_DS_
                                           	MOVAR	r0x101C
                                           	MOVRA	r0x101E
                                           	MOVAR	r0x101D
                                           	MOVRA	r0x101F
                                           	MOVAI	0xff
                                           	ADDRA	r0x101C
                                           	JBSET	STATUS,0
                                           	DECR	r0x101D
                                           	MOVAR	r0x101E
                                           	ORAR	r0x101F
                                           	JBCLR	STATUS,2
                                           	GOTO	_00176_DS_
                                           ;	.line	159; "MC30P6280.c"	Nop();
                                           	nop	
                                           	GOTO	_00174_DS_
                                           _00176_DS_
                                           ;	.line	161; "MC30P6280.c"	xms--;
                                           	MOVAI	0xff
                                           	ADDRA	r0x101B
                                           	MOVAI	0xff
                                           	JBSET	STATUS,0
                                           	ADDRA	r0x101A
                                           	MOVAI	0xff
                                           	JBSET	STATUS,0
                                           	ADDRA	r0x1019
                                           	MOVAI	0xff
                                           	JBSET	STATUS,0
                                           	ADDRA	r0x1018
                                           	GOTO	_00177_DS_
                                           _00180_DS_
                                           ;	.line	163; "MC30P6280.c"	}
                                           	RETURN	
                                           ; exit point of _delay_ms
                                           
                                           ;***
                                           ;  pBlock Stats: dbName = C
                                           ;***
                                           ;entry:  _Sys_Init	;Function start
                                           ; 2 exit points
                                           ;has an exit
                                           ;functions called:
                                           ;   _C_RAM
                                           ;   _IO_Init
                                           ;   _C_RAM
                                           ;   _IO_Init
                                           ;; Starting pCode block
                                           _Sys_Init	;Function start
                                           ; 2 exit points
                                           ;	.line	146; "MC30P6280.c"	GIE = 0;
                                           	BCLR	_INTEbits,7
                                           ;	.line	147; "MC30P6280.c"	C_RAM();
                                           	CALL	_C_RAM
                                           ;	.line	148; "MC30P6280.c"	IO_Init();
                                           	CALL	_IO_Init
                                           ;	.line	149; "MC30P6280.c"	GIE = 1;
                                           	BSET	_INTEbits,7
                                           ;	.line	150; "MC30P6280.c"	}
                                           	RETURN	
                                           ; exit point of _Sys_Init
                                           
                                           ;***
                                           ;  pBlock Stats: dbName = C
                                           ;***
                                           ;entry:  _lvd_scan	;Function start
                                           ; 2 exit points
                                           ;has an exit
                                           ;; Starting pCode block
                                           _lvd_scan	;Function start
                                           ; 2 exit points
                                           ;	.line	80; "MC30P6280.c"	LVDEN = 1; // ĘąÄÜ LVD
                                           	BSET	_MCRbits,0
                                           ;	.line	82; "MC30P6280.c"	switch (cur_lvd_state) {
                                           	MOVAR	_lvd_scan_cur_lvd_state_65536_22
                                           	JBSET	STATUS,2
                                           	GOTO	_00162_DS_
                                           	GOTO	_00114_DS_
                                           _00162_DS_
                                           	MOVAR	_lvd_scan_cur_lvd_state_65536_22
                                           	XORAI	0x01
                                           	JBSET	STATUS,2
                                           	GOTO	_00163_DS_
                                           	GOTO	_00115_DS_
                                           _00163_DS_
                                           	MOVAR	_lvd_scan_cur_lvd_state_65536_22
                                           	XORAI	0x02
                                           	JBSET	STATUS,2
                                           	GOTO	_00164_DS_
                                           	GOTO	_00121_DS_
                                           _00164_DS_
                                           	MOVAR	_lvd_scan_cur_lvd_state_65536_22
                                           	XORAI	0x03
                                           	JBSET	STATUS,2
                                           	GOTO	_00165_DS_
                                           	GOTO	_00122_DS_
                                           _00165_DS_
                                           	MOVAR	_lvd_scan_cur_lvd_state_65536_22
                                           	XORAI	0x0e
                                           	JBSET	STATUS,2
                                           	GOTO	_00128_DS_
                                           _00114_DS_
                                           ;	.line	86; "MC30P6280.c"	MCR &= ~MCR_LVD_CFG_ALL;
                                           	MOVAI	0xe1
                                           	ANDRA	_MCR
                                           ;	.line	87; "MC30P6280.c"	MCR |= MCR_LVD_CFG_4V2;
                                           	MOVAI	0x1e
                                           	ORRA	_MCR
                                           ;	.line	88; "MC30P6280.c"	cur_lvd_state = LVD_LEV_4V2_SWITCHING;
                                           	MOVAI	0x01
                                           	MOVRA	_lvd_scan_cur_lvd_state_65536_22
                                           ;	.line	89; "MC30P6280.c"	break;
                                           	GOTO	_00128_DS_
                                           _00115_DS_
                                           ;	.line	91; "MC30P6280.c"	cur_lvd_state = LVD_LEV_4V2;
                                           	MOVAI	0x02
                                           	MOVRA	_lvd_scan_cur_lvd_state_65536_22
                                           ;	.line	92; "MC30P6280.c"	if (LVDF) {
                                           	JBSET	_MCRbits,5
                                           	GOTO	_00119_DS_
                                           ;	.line	98; "MC30P6280.c"	if (bat_lev == BAT_LEV_4V2) {
                                           	MOVAR	_bat_lev
                                           	XORAI	0x06
                                           	JBSET	STATUS,2
                                           	GOTO	_00128_DS_
                                           ;	.line	99; "MC30P6280.c"	bat_lev = BAT_LEV_4V0;
                                           	MOVAI	0x05
                                           	MOVRA	_bat_lev
                                           	GOTO	_00128_DS_
                                           _00119_DS_
                                           ;	.line	106; "MC30P6280.c"	bat_lev = BAT_LEV_4V2;
                                           	MOVAI	0x06
                                           	MOVRA	_bat_lev
                                           ;	.line	108; "MC30P6280.c"	break;
                                           	GOTO	_00128_DS_
                                           _00121_DS_
                                           ;	.line	110; "MC30P6280.c"	MCR &= ~MCR_LVD_CFG_ALL;
                                           	MOVAI	0xe1
                                           	ANDRA	_MCR
                                           ;	.line	111; "MC30P6280.c"	MCR |= MCR_LVD_CFG_4V0;
                                           	MOVAI	0x1c
                                           	ORRA	_MCR
                                           ;	.line	112; "MC30P6280.c"	cur_lvd_state = LVD_LEV_4V0_SWITCHING;
                                           	MOVAI	0x03
                                           	MOVRA	_lvd_scan_cur_lvd_state_65536_22
                                           ;	.line	113; "MC30P6280.c"	break;
                                           	GOTO	_00128_DS_
                                           _00122_DS_
                                           ;	.line	115; "MC30P6280.c"	cur_lvd_state = LVD_LEV_4V0;
                                           	MOVAI	0x04
                                           	MOVRA	_lvd_scan_cur_lvd_state_65536_22
                                           ;	.line	116; "MC30P6280.c"	if (LVDF) {
                                           	JBSET	_MCRbits,5
                                           	GOTO	_00128_DS_
                                           ;;unsigned compare: left < lit(0x5=5), size=1
                                           ;	.line	122; "MC30P6280.c"	if (bat_lev >= BAT_LEV_4V0) {
                                           	MOVAI	0x05
                                           	RSUBAR	_bat_lev
                                           	JBSET	STATUS,0
                                           	GOTO	_00128_DS_
                                           ;;genSkipc:3291: created from rifx:013B5EFC
                                           ;	.line	123; "MC30P6280.c"	bat_lev = BAT_LEV_3V6;
                                           	MOVAI	0x04
                                           	MOVRA	_bat_lev
                                           _00128_DS_
                                           ;	.line	136; "MC30P6280.c"	}
                                           	RETURN	
                                           ; exit point of _lvd_scan
                                           
                                           ;***
                                           ;  pBlock Stats: dbName = C
                                           ;***
                                           ;entry:  _IO_Init	;Function start
                                           ; 2 exit points
                                           ;has an exit
                                           ;; Starting pCode block
                                           _IO_Init	;Function start
                                           ; 2 exit points
                                           ;	.line	68; "MC30P6280.c"	P1 = 0x00;    // 1:input 0:output
                                           	CLRR	_P1
                                           ;	.line	69; "MC30P6280.c"	DDR1 = 0x00;  // 1:input 0:output
                                           	CLRR	_DDR1
                                           ;	.line	70; "MC30P6280.c"	PUCON = 0xff; // 0:Effective 1:invalid
                                           	MOVAI	0xff
                                           	MOVRA	_PUCON
                                           ;	.line	71; "MC30P6280.c"	PDCON = 0xff; // 0:Effective 1:invalid
                                           	MOVAI	0xff
                                           	MOVRA	_PDCON
                                           ;	.line	72; "MC30P6280.c"	ODCON = 0x00; // 0:ÍĆÍěĘäłö  1:żŞÂ©Ęäłö
                                           	CLRR	_ODCON
                                           ;	.line	73; "MC30P6280.c"	}
                                           	RETURN	
                                           ; exit point of _IO_Init
                                           
                                           ;***
                                           ;  pBlock Stats: dbName = C
                                           ;***
                                           ;entry:  _C_RAM	;Function start
                                           ; 2 exit points
                                           ;has an exit
                                           ;; Starting pCode block
                                           _C_RAM	;Function start
                                           ; 2 exit points
                                           ;	.line	57; "MC30P6280.c"	__endasm;
                                           	;
                                           	movai	0x3F;
                                           	movra	FSR;
                                           	movai	47;
                                           	movra	0x3F;
                                           	decr	FSR;
                                           	clrr	INDF;
                                           	djzr	0x3F;
                                           	goto	$ - 3;
                                           	clrr	0x3F;
                                           	
                                           ;	.line	58; "MC30P6280.c"	}
                                           	RETURN	
                                           ; exit point of _C_RAM
                                           
                                           
                                           ;	code size estimation:
                                           ;	  746+    0 =   746 instructions ( 1492 byte)
                                           
                                           	end


MEMORY USAGE MAP ('X' = Used,  '-' = Unused)

0000 : XXXXXXXXXXXXXXXX XXXXXXXXXXXXXXXX XXXXXXXXXXXXXXXX XXXXXXXXXXXXXXXX
0040 : XXXXXXXXXXXXXXXX XXXXXXXXXXXXXXXX XXXXXXXXXXXXXXXX XXXXXXXXXXXXXXXX
0080 : XXXXXXXXXXXXXXXX XXXXXXXXXXXXXXXX XXXXXXXXXXXXXXXX XXXXXXXXXXXXXXXX
00C0 : XXXXXXXXXXXXXXXX XXXXXXXXXXXXXXXX XXXXXXXXXXXXXXXX XXXXXXXXXXXXXXXX
0100 : XXXXXXXXXXXXXXXX XXXXXXXXXXXXXXXX XXXXXXXXXXXXXXXX XXXXXXXXXXXXXXXX
0140 : XXXXXXXXXXXXXXXX XXXXXXXXXXXXXXXX XXXXXXXXXXXXXXXX XXXXXXXXXXXXXXXX
0180 : XXXXXXXXXXXXXXXX XXXXXXXXXXXXXXXX XXXXXXXXXXXXXXXX XXXXXXXXXXXXXXXX
01C0 : XXXXXXXXXXXXXXXX XXXXXXXXXXXXXXXX XXXXXXXXXXXXXXXX XXXXXXXXXXXXXXXX
0200 : XXXXXXXXXXXXXXXX XXXXXXXXXXXXXXXX XXXXXXXXXXXXXXXX XXXXXXXXXXXXXXXX
0240 : XXXXXXXXXXXXXXXX XXXXXXXXXXXXXXXX XXXXXXXXXXXXXXXX XXXXXXXXXXXXXXXX
0280 : XXXXXXXXXXXXXXXX XXXXXXXXXXXXXXXX XXXXXXXXXXXXXXXX XXXXXXXXXXXXXXXX
02C0 : XXXXXXXXXXXXXXXX XXXXXXXXXXXXXXXX XXXXXXXXXXXXXXXX XXXXXXXXXXXXXXXX
0300 : XXXXXXXXXXXXXXXX XXXXXXXXXXXXXXXX XXXXXXXXXXXXXXXX XXXXXXXXXXXXXXXX
0340 : XXXXXXXXXXXXXXXX XXXXXXXXXXXXXXXX XXXXXXXXXXXXXXXX XXXXXXXXXXXXXXXX
0380 : XXXXXXXXXXXXXXXX XXXXXXXXXXXXXXXX XXXXXXXXXXXXXXXX XXXXXXXXXXXXXXXX
03C0 : XXXXXXXXXXXXXXXX XXXXXXXXXXXXXXXX XXXXXXXXXXXXXXXX XXXXXXXXXXXXXXXX
0400 : XXXXXXXXXXXXXXXX XXXXXXXXXXXXXXXX XXXXXXXXXXXXXXXX XXXXXXXXXXXXXXXX
0440 : XXXXXXXXXXXXXXXX XXXXXXXXXXXXXXXX XXXXXXXXXXXXXXXX XXXXXXXXXXXXXXXX
0480 : XXXXXXXXXXXXXXXX XXXXXXXXXXXXXXXX XXXXXXXXXXXXXXXX XXXXXXXXXXXXXXXX
04C0 : XXXXXXXXXXXXXXXX XXXXXXXXXXXXXXXX XXXXXXXXXXXXXXXX XXXXXXXXXXXXXXXX
0500 : XXXXXXXXXXXXXXXX XXXXXXXXXXXXXXXX XXXXXXXXXXXXXXXX XXXXXXXXXXXXXXXX
0540 : XXXXXXXXXXXXXXXX XXXXXXXXXXXXXXXX XXXXXXXXXXXXXXXX XXXXXXXXXXXXXXXX
0580 : XXXXXXXXXXXXXXXX XXXXXXXXXXXXXXXX XXXXXXXXXXXXXXXX XXXXXXXXXXXXXXXX
05C0 : XXXXXXXXXXXXXXXX XXXXXXXXXXXXXXXX XXXXXXXXXXXXXXXX XXXXXXXXXXXXXXXX
0600 : XXXXXXXXXXXXXXXX XXXXXXXXXXXXXXXX XXXXXXXXXXXXXXXX XXXXXXXXXXXXXXXX
0640 : XXXXXXXXXXXXXXXX XXXXXXXXXXXXXXXX XXXXXXXXXXXXXXXX XXXXXXXXXXXXXXXX
0680 : XXXXXXXXXXXXXXXX XXXXXXXXXXXXXXXX XXXXXXXXXXXXXXXX XXXXXXXXXXXXXXXX
06C0 : XXXXXXXXXXXXXXXX XXXXXXXX-------- ---------------- ----------------

All other memory blocks unused.

Program Memory Words Used:   876

